	.text
	.file	"vm.c"
	.globl	new_vm                          // -- Begin function new_vm
	.p2align	2
	.type	new_vm,@function
new_vm:                                 // @new_vm
	.cfi_startproc
// %bb.0:
	sub	sp, sp, #96
	.cfi_def_cfa_offset 96
	stp	x29, x30, [sp, #80]             // 16-byte Folded Spill
	add	x29, sp, #80
	.cfi_def_cfa w29, 16
	.cfi_offset w30, -8
	.cfi_offset w29, -16
	.cfi_remember_state
	mov	w8, wzr
	str	w8, [sp, #28]                   // 4-byte Folded Spill
	stur	wzr, [x29, #-4]
	stur	wzr, [x29, #-8]
	stur	wzr, [x29, #-12]
	stur	wzr, [x29, #-16]
	stur	wzr, [x29, #-20]
	stur	wzr, [x29, #-4]
	stur	x0, [x29, #-32]
	stur	w1, [x29, #-36]
	str	w2, [sp, #40]
	mov	x0, #88                         // =0x58
	bl	malloc
	str	x0, [sp, #32]
	ldur	x8, [x29, #-32]
	ldr	x11, [sp, #32]
	str	x8, [x11, #64]
	ldr	x8, [sp, #32]
	str	wzr, [x8, #72]
	ldr	x8, [sp, #32]
	str	wzr, [x8, #76]
	ldrsw	x11, [sp, #40]
	mov	x8, #4                          // =0x4
	mul	x0, x8, x11
	bl	malloc
	ldr	w1, [sp, #28]                   // 4-byte Folded Reload
	ldr	x8, [sp, #32]
	str	x0, [x8, #80]
	ldr	x8, [sp, #32]
	ldr	x0, [x8, #80]
	ldrsw	x2, [sp, #40]
	bl	memset
	b	.LBB0_4
.LBB0_1:                                // %.split
	b	.LBB0_2
.LBB0_2:                                // %.split.split
	ldr	x8, [sp, #32]
	ldr	x8, [x8, #80]
	add	x0, x8, #128
	mov	x2, #34                         // =0x22
	adrp	x1, cmps
	add	x1, x1, :lo12:cmps
	bl	memcpy
	ldr	x0, [sp, #32]
	.cfi_def_cfa wsp, 96
	ldp	x29, x30, [sp, #80]             // 16-byte Folded Reload
	add	sp, sp, #96
	.cfi_def_cfa_offset 0
	.cfi_restore w30
	.cfi_restore w29
	ret
.LBB0_3:                                // %excute.cond
	.cfi_restore_state
	ldur	w8, [x29, #-24]
	add	w8, w8, #1
	stur	w8, [x29, #-24]
	b	.LBB0_1
.LBB0_4:                                // %outer.loop.cond
                                        // =>This Loop Header: Depth=1
                                        //     Child Loop BB0_7 Depth 2
                                        //       Child Loop BB0_10 Depth 3
                                        //         Child Loop BB0_13 Depth 4
                                        //           Child Loop BB0_16 Depth 5
	ldur	w8, [x29, #-4]
	str	w8, [sp, #24]                   // 4-byte Folded Spill
	subs	w8, w8, #10
	cset	w8, ge
	tbnz	w8, #0, .LBB0_6
	b	.LBB0_5
.LBB0_5:                                // %outer.loop.body
                                        //   in Loop: Header=BB0_4 Depth=1
	ldr	w8, [sp, #24]                   // 4-byte Folded Reload
	add	w8, w8, #1
	stur	w8, [x29, #-4]
	b	.LBB0_7
.LBB0_6:                                // %outer.loop.end
	b	.LBB0_1
.LBB0_7:                                // %inner.loop.cond
                                        //   Parent Loop BB0_4 Depth=1
                                        // =>  This Loop Header: Depth=2
                                        //       Child Loop BB0_10 Depth 3
                                        //         Child Loop BB0_13 Depth 4
                                        //           Child Loop BB0_16 Depth 5
	ldur	w8, [x29, #-8]
	str	w8, [sp, #20]                   // 4-byte Folded Spill
	subs	w8, w8, #5
	cset	w8, ge
	tbnz	w8, #0, .LBB0_9
	b	.LBB0_8
.LBB0_8:                                // %inner.loop.body
                                        //   in Loop: Header=BB0_7 Depth=2
	ldr	w8, [sp, #20]                   // 4-byte Folded Reload
	add	w8, w8, #1
	stur	w8, [x29, #-8]
	b	.LBB0_10
.LBB0_9:                                // %inner.loop.end
                                        //   in Loop: Header=BB0_4 Depth=1
	b	.LBB0_4
.LBB0_10:                               // %inner.loop.cond1
                                        //   Parent Loop BB0_4 Depth=1
                                        //     Parent Loop BB0_7 Depth=2
                                        // =>    This Loop Header: Depth=3
                                        //         Child Loop BB0_13 Depth 4
                                        //           Child Loop BB0_16 Depth 5
	ldur	w8, [x29, #-12]
	str	w8, [sp, #16]                   // 4-byte Folded Spill
	subs	w8, w8, #5
	cset	w8, ge
	tbnz	w8, #0, .LBB0_12
	b	.LBB0_11
.LBB0_11:                               // %inner.loop.body2
                                        //   in Loop: Header=BB0_10 Depth=3
	ldr	w8, [sp, #16]                   // 4-byte Folded Reload
	add	w8, w8, #1
	stur	w8, [x29, #-12]
	b	.LBB0_13
.LBB0_12:                               // %inner.loop.end3
                                        //   in Loop: Header=BB0_7 Depth=2
	b	.LBB0_7
.LBB0_13:                               // %inner.loop.cond4
                                        //   Parent Loop BB0_4 Depth=1
                                        //     Parent Loop BB0_7 Depth=2
                                        //       Parent Loop BB0_10 Depth=3
                                        // =>      This Loop Header: Depth=4
                                        //           Child Loop BB0_16 Depth 5
	ldur	w8, [x29, #-16]
	str	w8, [sp, #12]                   // 4-byte Folded Spill
	subs	w8, w8, #5
	cset	w8, ge
	tbnz	w8, #0, .LBB0_15
	b	.LBB0_14
.LBB0_14:                               // %inner.loop.body5
                                        //   in Loop: Header=BB0_13 Depth=4
	ldr	w8, [sp, #12]                   // 4-byte Folded Reload
	add	w8, w8, #1
	stur	w8, [x29, #-16]
	b	.LBB0_16
.LBB0_15:                               // %inner.loop.end6
                                        //   in Loop: Header=BB0_10 Depth=3
	b	.LBB0_10
.LBB0_16:                               // %inner.loop.cond7
                                        //   Parent Loop BB0_4 Depth=1
                                        //     Parent Loop BB0_7 Depth=2
                                        //       Parent Loop BB0_10 Depth=3
                                        //         Parent Loop BB0_13 Depth=4
                                        // =>        This Inner Loop Header: Depth=5
	ldur	w8, [x29, #-20]
	str	w8, [sp, #8]                    // 4-byte Folded Spill
	subs	w8, w8, #5
	cset	w8, ge
	tbnz	w8, #0, .LBB0_18
	b	.LBB0_17
.LBB0_17:                               // %inner.loop.body8
                                        //   in Loop: Header=BB0_16 Depth=5
	ldr	w8, [sp, #8]                    // 4-byte Folded Reload
	add	w8, w8, #1
	stur	w8, [x29, #-20]
	ldur	w8, [x29, #-24]
	subs	w8, w8, #0
	cset	w8, gt
	tbnz	w8, #0, .LBB0_16
	b	.LBB0_3
.LBB0_18:                               // %inner.loop.end9
                                        //   in Loop: Header=BB0_13 Depth=4
	b	.LBB0_13
.Lfunc_end0:
	.size	new_vm, .Lfunc_end0-new_vm
	.cfi_endproc
                                        // -- End function
	.globl	run_vm                          // -- Begin function run_vm
	.p2align	2
	.type	run_vm,@function
run_vm:                                 // @run_vm
	.cfi_startproc
// %bb.0:
	stp	x29, x30, [sp, #-32]!           // 16-byte Folded Spill
	.cfi_def_cfa_offset 32
	str	x28, [sp, #16]                  // 8-byte Folded Spill
	mov	x29, sp
	.cfi_def_cfa w29, 32
	.cfi_offset w28, -16
	.cfi_offset w30, -24
	.cfi_offset w29, -32
	.cfi_remember_state
	sub	sp, sp, #3008
	stur	x0, [x29, #-64]                 // 8-byte Folded Spill
	stur	wzr, [x29, #-4]
	stur	wzr, [x29, #-8]
	stur	wzr, [x29, #-12]
	stur	wzr, [x29, #-16]
	stur	wzr, [x29, #-20]
	stur	wzr, [x29, #-4]
	b	.LBB1_117
.LBB1_1:                                // %.split
	b	.LBB1_2
.LBB1_2:                                // %.split.split
	ldur	x12, [x29, #-64]                // 8-byte Folded Reload
	mov	w8, #1                          // =0x1
	mov	x11, #1                         // =0x1
	lsl	x13, x11, #2
	add	x13, x13, #15
	and	x14, x13, #0xfffffffffffffff0
	mov	x13, sp
	subs	x13, x13, x14
	mov	sp, x13
	stur	x13, [x29, #-80]                // 8-byte Folded Spill
	lsl	x11, x11, #2
	add	x11, x11, #15
	and	x13, x11, #0xfffffffffffffff0
	mov	x11, sp
	subs	x11, x11, x13
	mov	sp, x11
	stur	x11, [x29, #-72]                // 8-byte Folded Spill
	stur	x12, [x29, #-32]
	str	w8, [x11]
	b	.LBB1_3
.Ltmp0:                                 // Block address taken
.LBB1_3:                                // =>This Loop Header: Depth=1
                                        //     Child Loop BB1_133 Depth 2
                                        //       Child Loop BB1_136 Depth 3
                                        //         Child Loop BB1_139 Depth 4
                                        //           Child Loop BB1_142 Depth 5
                                        //             Child Loop BB1_145 Depth 6
                                        //     Child Loop BB1_149 Depth 2
                                        //       Child Loop BB1_152 Depth 3
                                        //         Child Loop BB1_155 Depth 4
                                        //           Child Loop BB1_158 Depth 5
                                        //             Child Loop BB1_161 Depth 6
                                        //     Child Loop BB1_165 Depth 2
                                        //       Child Loop BB1_168 Depth 3
                                        //         Child Loop BB1_171 Depth 4
                                        //           Child Loop BB1_174 Depth 5
                                        //             Child Loop BB1_177 Depth 6
                                        //     Child Loop BB1_181 Depth 2
                                        //       Child Loop BB1_184 Depth 3
                                        //         Child Loop BB1_187 Depth 4
                                        //           Child Loop BB1_190 Depth 5
                                        //             Child Loop BB1_193 Depth 6
                                        //     Child Loop BB1_197 Depth 2
                                        //       Child Loop BB1_200 Depth 3
                                        //         Child Loop BB1_203 Depth 4
                                        //           Child Loop BB1_206 Depth 5
                                        //             Child Loop BB1_209 Depth 6
                                        //     Child Loop BB1_213 Depth 2
                                        //       Child Loop BB1_216 Depth 3
                                        //         Child Loop BB1_219 Depth 4
                                        //           Child Loop BB1_222 Depth 5
                                        //             Child Loop BB1_225 Depth 6
                                        //     Child Loop BB1_229 Depth 2
                                        //       Child Loop BB1_232 Depth 3
                                        //         Child Loop BB1_235 Depth 4
                                        //           Child Loop BB1_238 Depth 5
                                        //             Child Loop BB1_241 Depth 6
                                        //     Child Loop BB1_245 Depth 2
                                        //       Child Loop BB1_248 Depth 3
                                        //         Child Loop BB1_251 Depth 4
                                        //           Child Loop BB1_254 Depth 5
                                        //             Child Loop BB1_257 Depth 6
                                        //     Child Loop BB1_261 Depth 2
                                        //       Child Loop BB1_264 Depth 3
                                        //         Child Loop BB1_267 Depth 4
                                        //           Child Loop BB1_270 Depth 5
                                        //             Child Loop BB1_273 Depth 6
                                        //     Child Loop BB1_277 Depth 2
                                        //       Child Loop BB1_280 Depth 3
                                        //         Child Loop BB1_283 Depth 4
                                        //           Child Loop BB1_286 Depth 5
                                        //             Child Loop BB1_289 Depth 6
                                        //     Child Loop BB1_293 Depth 2
                                        //       Child Loop BB1_296 Depth 3
                                        //         Child Loop BB1_299 Depth 4
                                        //           Child Loop BB1_302 Depth 5
                                        //             Child Loop BB1_305 Depth 6
                                        //     Child Loop BB1_309 Depth 2
                                        //       Child Loop BB1_312 Depth 3
                                        //         Child Loop BB1_315 Depth 4
                                        //           Child Loop BB1_318 Depth 5
                                        //             Child Loop BB1_321 Depth 6
                                        //     Child Loop BB1_325 Depth 2
                                        //       Child Loop BB1_328 Depth 3
                                        //         Child Loop BB1_331 Depth 4
                                        //           Child Loop BB1_334 Depth 5
                                        //             Child Loop BB1_337 Depth 6
                                        //     Child Loop BB1_341 Depth 2
                                        //       Child Loop BB1_344 Depth 3
                                        //         Child Loop BB1_347 Depth 4
                                        //           Child Loop BB1_350 Depth 5
                                        //             Child Loop BB1_353 Depth 6
                                        //     Child Loop BB1_357 Depth 2
                                        //       Child Loop BB1_360 Depth 3
                                        //         Child Loop BB1_363 Depth 4
                                        //           Child Loop BB1_366 Depth 5
                                        //             Child Loop BB1_369 Depth 6
                                        //     Child Loop BB1_613 Depth 2
                                        //       Child Loop BB1_616 Depth 3
                                        //         Child Loop BB1_619 Depth 4
                                        //           Child Loop BB1_622 Depth 5
                                        //             Child Loop BB1_625 Depth 6
                                        //     Child Loop BB1_629 Depth 2
                                        //       Child Loop BB1_632 Depth 3
                                        //         Child Loop BB1_635 Depth 4
                                        //           Child Loop BB1_638 Depth 5
                                        //             Child Loop BB1_641 Depth 6
                                        //     Child Loop BB1_661 Depth 2
                                        //       Child Loop BB1_664 Depth 3
                                        //         Child Loop BB1_667 Depth 4
                                        //           Child Loop BB1_670 Depth 5
                                        //             Child Loop BB1_673 Depth 6
                                        //     Child Loop BB1_645 Depth 2
                                        //       Child Loop BB1_648 Depth 3
                                        //         Child Loop BB1_651 Depth 4
                                        //           Child Loop BB1_654 Depth 5
                                        //             Child Loop BB1_657 Depth 6
                                        //     Child Loop BB1_677 Depth 2
                                        //       Child Loop BB1_680 Depth 3
                                        //         Child Loop BB1_683 Depth 4
                                        //           Child Loop BB1_686 Depth 5
                                        //             Child Loop BB1_689 Depth 6
                                        //     Child Loop BB1_597 Depth 2
                                        //       Child Loop BB1_600 Depth 3
                                        //         Child Loop BB1_603 Depth 4
                                        //           Child Loop BB1_606 Depth 5
                                        //             Child Loop BB1_609 Depth 6
                                        //     Child Loop BB1_549 Depth 2
                                        //       Child Loop BB1_552 Depth 3
                                        //         Child Loop BB1_555 Depth 4
                                        //           Child Loop BB1_558 Depth 5
                                        //             Child Loop BB1_561 Depth 6
                                        //     Child Loop BB1_565 Depth 2
                                        //       Child Loop BB1_568 Depth 3
                                        //         Child Loop BB1_571 Depth 4
                                        //           Child Loop BB1_574 Depth 5
                                        //             Child Loop BB1_577 Depth 6
                                        //     Child Loop BB1_581 Depth 2
                                        //       Child Loop BB1_584 Depth 3
                                        //         Child Loop BB1_587 Depth 4
                                        //           Child Loop BB1_590 Depth 5
                                        //             Child Loop BB1_593 Depth 6
                                        //     Child Loop BB1_533 Depth 2
                                        //       Child Loop BB1_536 Depth 3
                                        //         Child Loop BB1_539 Depth 4
                                        //           Child Loop BB1_542 Depth 5
                                        //             Child Loop BB1_545 Depth 6
                                        //     Child Loop BB1_517 Depth 2
                                        //       Child Loop BB1_520 Depth 3
                                        //         Child Loop BB1_523 Depth 4
                                        //           Child Loop BB1_526 Depth 5
                                        //             Child Loop BB1_529 Depth 6
                                        //     Child Loop BB1_501 Depth 2
                                        //       Child Loop BB1_504 Depth 3
                                        //         Child Loop BB1_507 Depth 4
                                        //           Child Loop BB1_510 Depth 5
                                        //             Child Loop BB1_513 Depth 6
                                        //     Child Loop BB1_485 Depth 2
                                        //       Child Loop BB1_488 Depth 3
                                        //         Child Loop BB1_491 Depth 4
                                        //           Child Loop BB1_494 Depth 5
                                        //             Child Loop BB1_497 Depth 6
                                        //     Child Loop BB1_469 Depth 2
                                        //       Child Loop BB1_472 Depth 3
                                        //         Child Loop BB1_475 Depth 4
                                        //           Child Loop BB1_478 Depth 5
                                        //             Child Loop BB1_481 Depth 6
                                        //     Child Loop BB1_453 Depth 2
                                        //       Child Loop BB1_456 Depth 3
                                        //         Child Loop BB1_459 Depth 4
                                        //           Child Loop BB1_462 Depth 5
                                        //             Child Loop BB1_465 Depth 6
                                        //     Child Loop BB1_437 Depth 2
                                        //       Child Loop BB1_440 Depth 3
                                        //         Child Loop BB1_443 Depth 4
                                        //           Child Loop BB1_446 Depth 5
                                        //             Child Loop BB1_449 Depth 6
                                        //     Child Loop BB1_421 Depth 2
                                        //       Child Loop BB1_424 Depth 3
                                        //         Child Loop BB1_427 Depth 4
                                        //           Child Loop BB1_430 Depth 5
                                        //             Child Loop BB1_433 Depth 6
                                        //     Child Loop BB1_405 Depth 2
                                        //       Child Loop BB1_408 Depth 3
                                        //         Child Loop BB1_411 Depth 4
                                        //           Child Loop BB1_414 Depth 5
                                        //             Child Loop BB1_417 Depth 6
                                        //     Child Loop BB1_389 Depth 2
                                        //       Child Loop BB1_392 Depth 3
                                        //         Child Loop BB1_395 Depth 4
                                        //           Child Loop BB1_398 Depth 5
                                        //             Child Loop BB1_401 Depth 6
                                        //     Child Loop BB1_373 Depth 2
                                        //       Child Loop BB1_376 Depth 3
                                        //         Child Loop BB1_379 Depth 4
                                        //           Child Loop BB1_382 Depth 5
                                        //             Child Loop BB1_385 Depth 6
	ldur	x8, [x29, #-72]                 // 8-byte Folded Reload
	mov	x12, #1                         // =0x1
	lsl	x11, x12, #2
	add	x11, x11, #15
	and	x13, x11, #0xfffffffffffffff0
	mov	x11, sp
	subs	x11, x11, x13
	mov	sp, x11
	stur	x11, [x29, #-136]               // 8-byte Folded Spill
	str	wzr, [x11]
	lsl	x13, x12, #2
	add	x13, x13, #15
	and	x14, x13, #0xfffffffffffffff0
	mov	x13, sp
	subs	x13, x13, x14
	mov	sp, x13
	stur	x13, [x29, #-128]               // 8-byte Folded Spill
	str	wzr, [x13]
	lsl	x13, x12, #2
	add	x13, x13, #15
	and	x14, x13, #0xfffffffffffffff0
	mov	x13, sp
	subs	x13, x13, x14
	mov	sp, x13
	stur	x13, [x29, #-120]               // 8-byte Folded Spill
	str	wzr, [x13]
	lsl	x13, x12, #2
	add	x13, x13, #15
	and	x14, x13, #0xfffffffffffffff0
	mov	x13, sp
	subs	x13, x13, x14
	mov	sp, x13
	stur	x13, [x29, #-112]               // 8-byte Folded Spill
	str	wzr, [x13]
	lsl	x13, x12, #2
	add	x13, x13, #15
	and	x14, x13, #0xfffffffffffffff0
	mov	x13, sp
	subs	x13, x13, x14
	mov	sp, x13
	stur	x13, [x29, #-104]               // 8-byte Folded Spill
	str	wzr, [x13]
	lsl	x12, x12, #2
	add	x12, x12, #15
	and	x13, x12, #0xfffffffffffffff0
	mov	x12, sp
	subs	x12, x12, x13
	mov	sp, x12
	stur	x12, [x29, #-96]                // 8-byte Folded Spill
	str	wzr, [x11]
	mov	x11, #281474976776192           // =0x1000000010000
	movk	x11, #38
	//APP
	mov	x9, x11
	//NO_APP
	ldr	w8, [x8]
	stur	w8, [x29, #-84]                 // 4-byte Folded Spill
	b	.LBB1_133
.LBB1_4:                                // %.split10
                                        //   in Loop: Header=BB1_3 Depth=1
	ldur	w8, [x29, #-84]                 // 4-byte Folded Reload
	subs	w8, w8, #0
	cset	w8, ne
	stur	w8, [x29, #-140]                // 4-byte Folded Spill
	b	.LBB1_5
.LBB1_5:                                // %.split10.split
                                        //   in Loop: Header=BB1_3 Depth=1
	ldur	w8, [x29, #-140]                // 4-byte Folded Reload
	mov	w11, w8
	//APP
	mov	x10, x11

	//NO_APP
	//APP
	b	ConditionalJumpFunc_byX10
	//NO_APP
	tbz	w8, #0, .LBB1_115
	b	.LBB1_6
.Ltmp1:                                 // Block address taken
.LBB1_6:                                //   in Loop: Header=BB1_3 Depth=1
	mov	x11, #1                         // =0x1
	lsl	x8, x11, #2
	add	x8, x8, #15
	and	x12, x8, #0xfffffffffffffff0
	mov	x8, sp
	subs	x8, x8, x12
	mov	sp, x8
	stur	x8, [x29, #-208]                // 8-byte Folded Spill
	str	wzr, [x8]
	lsl	x12, x11, #2
	add	x12, x12, #15
	and	x13, x12, #0xfffffffffffffff0
	mov	x12, sp
	subs	x12, x12, x13
	mov	sp, x12
	stur	x12, [x29, #-200]               // 8-byte Folded Spill
	str	wzr, [x12]
	lsl	x12, x11, #2
	add	x12, x12, #15
	and	x13, x12, #0xfffffffffffffff0
	mov	x12, sp
	subs	x12, x12, x13
	mov	sp, x12
	stur	x12, [x29, #-192]               // 8-byte Folded Spill
	str	wzr, [x12]
	lsl	x12, x11, #2
	add	x12, x12, #15
	and	x13, x12, #0xfffffffffffffff0
	mov	x12, sp
	subs	x12, x12, x13
	mov	sp, x12
	stur	x12, [x29, #-184]               // 8-byte Folded Spill
	str	wzr, [x12]
	lsl	x12, x11, #2
	add	x12, x12, #15
	and	x13, x12, #0xfffffffffffffff0
	mov	x12, sp
	subs	x12, x12, x13
	mov	sp, x12
	stur	x12, [x29, #-176]               // 8-byte Folded Spill
	str	wzr, [x12]
	lsl	x11, x11, #2
	add	x11, x11, #15
	and	x12, x11, #0xfffffffffffffff0
	mov	x11, sp
	subs	x11, x11, x12
	mov	sp, x11
	stur	x11, [x29, #-168]               // 8-byte Folded Spill
	str	wzr, [x8]
	mov	x8, #281479271743489            // =0x1000100010001
	movk	x8, #2
	movk	x8, #16, lsl #16
	//APP
	mov	x9, x8
	//NO_APP
	ldur	x8, [x29, #-32]
	ldr	x8, [x8, #64]
	stur	x8, [x29, #-160]                // 8-byte Folded Spill
	ldur	x8, [x29, #-32]
	ldrsw	x8, [x8, #72]
	stur	x8, [x29, #-152]                // 8-byte Folded Spill
	b	.LBB1_149
.LBB1_7:                                // %.split33
                                        //   in Loop: Header=BB1_3 Depth=1
	ldur	x8, [x29, #-160]                // 8-byte Folded Reload
	ldur	x11, [x29, #-152]               // 8-byte Folded Reload
	ldr	w8, [x8, x11, lsl #2]
	stur	w8, [x29, #-36]
	b	.LBB1_8
.LBB1_8:                                // %.split33.split
                                        //   in Loop: Header=BB1_3 Depth=1
	ldur	w8, [x29, #-36]
	stur	w8, [x29, #-212]                // 4-byte Folded Spill
	subs	w8, w8, #0
	cset	w8, eq
	mov	w11, w8
	//APP
	mov	x10, x11

	//NO_APP
	//APP
	b	ConditionalJumpFunc_byX10
	//NO_APP
	tbnz	w8, #0, .LBB1_49
	b	.LBB1_9
.Ltmp2:                                 // Block address taken
.LBB1_9:                                //   in Loop: Header=BB1_3 Depth=1
	mov	x11, #1                         // =0x1
	lsl	x8, x11, #2
	add	x8, x8, #15
	and	x12, x8, #0xfffffffffffffff0
	mov	x8, sp
	subs	x8, x8, x12
	mov	sp, x8
	sub	x12, x29, #8
	stur	x8, [x12, #-256]                // 8-byte Folded Spill
	str	wzr, [x8]
	lsl	x12, x11, #2
	add	x12, x12, #15
	and	x13, x12, #0xfffffffffffffff0
	mov	x12, sp
	subs	x12, x12, x13
	mov	sp, x12
	stur	x12, [x29, #-256]               // 8-byte Folded Spill
	str	wzr, [x12]
	lsl	x12, x11, #2
	add	x12, x12, #15
	and	x13, x12, #0xfffffffffffffff0
	mov	x12, sp
	subs	x12, x12, x13
	mov	sp, x12
	stur	x12, [x29, #-248]               // 8-byte Folded Spill
	str	wzr, [x12]
	lsl	x12, x11, #2
	add	x12, x12, #15
	and	x13, x12, #0xfffffffffffffff0
	mov	x12, sp
	subs	x12, x12, x13
	mov	sp, x12
	stur	x12, [x29, #-240]               // 8-byte Folded Spill
	str	wzr, [x12]
	lsl	x12, x11, #2
	add	x12, x12, #15
	and	x13, x12, #0xfffffffffffffff0
	mov	x12, sp
	subs	x12, x12, x13
	mov	sp, x12
	stur	x12, [x29, #-232]               // 8-byte Folded Spill
	str	wzr, [x12]
	lsl	x11, x11, #2
	add	x11, x11, #15
	and	x12, x11, #0xfffffffffffffff0
	mov	x11, sp
	subs	x11, x11, x12
	mov	sp, x11
	stur	x11, [x29, #-224]               // 8-byte Folded Spill
	str	wzr, [x8]
	mov	x8, #3                          // =0x3
	movk	x8, #17, lsl #16
	movk	x8, #2, lsl #32
	movk	x8, #1, lsl #48
	//APP
	mov	x9, x8
	//NO_APP
	b	.LBB1_165
.LBB1_10:                               // %.split56
                                        //   in Loop: Header=BB1_3 Depth=1
	ldur	w8, [x29, #-212]                // 4-byte Folded Reload
	subs	w8, w8, #1
	cset	w8, eq
	sub	x11, x29, #12
	stur	w8, [x11, #-256]                // 4-byte Folded Spill
	b	.LBB1_11
.LBB1_11:                               // %.split56.split
                                        //   in Loop: Header=BB1_3 Depth=1
	sub	x8, x29, #12
	ldur	w8, [x8, #-256]                 // 4-byte Folded Reload
	mov	w11, w8
	//APP
	mov	x10, x11

	//NO_APP
	//APP
	b	ConditionalJumpFunc_byX10
	//NO_APP
	tbnz	w8, #0, .LBB1_52
	b	.LBB1_12
.Ltmp3:                                 // Block address taken
.LBB1_12:                               //   in Loop: Header=BB1_3 Depth=1
	mov	x11, #1                         // =0x1
	lsl	x8, x11, #2
	add	x8, x8, #15
	and	x12, x8, #0xfffffffffffffff0
	mov	x8, sp
	subs	x8, x8, x12
	mov	sp, x8
	sub	x12, x29, #64
	stur	x8, [x12, #-256]                // 8-byte Folded Spill
	str	wzr, [x8]
	lsl	x12, x11, #2
	add	x12, x12, #15
	and	x13, x12, #0xfffffffffffffff0
	mov	x12, sp
	subs	x12, x12, x13
	mov	sp, x12
	sub	x13, x29, #56
	stur	x12, [x13, #-256]               // 8-byte Folded Spill
	str	wzr, [x12]
	lsl	x12, x11, #2
	add	x12, x12, #15
	and	x13, x12, #0xfffffffffffffff0
	mov	x12, sp
	subs	x12, x12, x13
	mov	sp, x12
	sub	x13, x29, #48
	stur	x12, [x13, #-256]               // 8-byte Folded Spill
	str	wzr, [x12]
	lsl	x12, x11, #2
	add	x12, x12, #15
	and	x13, x12, #0xfffffffffffffff0
	mov	x12, sp
	subs	x12, x12, x13
	mov	sp, x12
	sub	x13, x29, #40
	stur	x12, [x13, #-256]               // 8-byte Folded Spill
	str	wzr, [x12]
	lsl	x12, x11, #2
	add	x12, x12, #15
	and	x13, x12, #0xfffffffffffffff0
	mov	x12, sp
	subs	x12, x12, x13
	mov	sp, x12
	sub	x13, x29, #32
	stur	x12, [x13, #-256]               // 8-byte Folded Spill
	str	wzr, [x12]
	lsl	x11, x11, #2
	add	x11, x11, #15
	and	x12, x11, #0xfffffffffffffff0
	mov	x11, sp
	subs	x11, x11, x12
	mov	sp, x11
	sub	x12, x29, #24
	stur	x11, [x12, #-256]               // 8-byte Folded Spill
	str	wzr, [x8]
	b	.LBB1_181
.LBB1_13:                               // %.split79
                                        //   in Loop: Header=BB1_3 Depth=1
	ldur	w8, [x29, #-212]                // 4-byte Folded Reload
	mov	x11, #4                         // =0x4
	movk	x11, #18, lsl #16
	movk	x11, #3, lsl #32
	movk	x11, #1, lsl #48
	//APP
	mov	x9, x11
	//NO_APP
	subs	w8, w8, #2
	cset	w8, eq
	sub	x11, x29, #68
	stur	w8, [x11, #-256]                // 4-byte Folded Spill
	b	.LBB1_14
.LBB1_14:                               // %.split79.split
                                        //   in Loop: Header=BB1_3 Depth=1
	sub	x8, x29, #68
	ldur	w8, [x8, #-256]                 // 4-byte Folded Reload
	mov	w11, w8
	//APP
	mov	x10, x11

	//NO_APP
	//APP
	b	ConditionalJumpFunc_byX10
	//NO_APP
	tbnz	w8, #0, .LBB1_55
	b	.LBB1_15
.Ltmp4:                                 // Block address taken
.LBB1_15:                               //   in Loop: Header=BB1_3 Depth=1
	mov	x11, #1                         // =0x1
	lsl	x8, x11, #2
	add	x8, x8, #15
	and	x12, x8, #0xfffffffffffffff0
	mov	x8, sp
	subs	x8, x8, x12
	mov	sp, x8
	sub	x12, x29, #120
	stur	x8, [x12, #-256]                // 8-byte Folded Spill
	str	wzr, [x8]
	lsl	x12, x11, #2
	add	x12, x12, #15
	and	x13, x12, #0xfffffffffffffff0
	mov	x12, sp
	subs	x12, x12, x13
	mov	sp, x12
	sub	x13, x29, #112
	stur	x12, [x13, #-256]               // 8-byte Folded Spill
	str	wzr, [x12]
	lsl	x12, x11, #2
	add	x12, x12, #15
	and	x13, x12, #0xfffffffffffffff0
	mov	x12, sp
	subs	x12, x12, x13
	mov	sp, x12
	sub	x13, x29, #104
	stur	x12, [x13, #-256]               // 8-byte Folded Spill
	str	wzr, [x12]
	lsl	x12, x11, #2
	add	x12, x12, #15
	and	x13, x12, #0xfffffffffffffff0
	mov	x12, sp
	subs	x12, x12, x13
	mov	sp, x12
	sub	x13, x29, #96
	stur	x12, [x13, #-256]               // 8-byte Folded Spill
	str	wzr, [x12]
	lsl	x12, x11, #2
	add	x12, x12, #15
	and	x13, x12, #0xfffffffffffffff0
	mov	x12, sp
	subs	x12, x12, x13
	mov	sp, x12
	sub	x13, x29, #88
	stur	x12, [x13, #-256]               // 8-byte Folded Spill
	str	wzr, [x12]
	lsl	x11, x11, #2
	add	x11, x11, #15
	and	x12, x11, #0xfffffffffffffff0
	mov	x11, sp
	subs	x11, x11, x12
	mov	sp, x11
	sub	x12, x29, #80
	stur	x11, [x12, #-256]               // 8-byte Folded Spill
	str	wzr, [x8]
	b	.LBB1_197
.LBB1_16:                               // %.split102
                                        //   in Loop: Header=BB1_3 Depth=1
	b	.LBB1_17
.LBB1_17:                               // %.split102.split
                                        //   in Loop: Header=BB1_3 Depth=1
	ldur	w8, [x29, #-212]                // 4-byte Folded Reload
	mov	x11, #5                         // =0x5
	movk	x11, #19, lsl #16
	movk	x11, #4, lsl #32
	movk	x11, #1, lsl #48
	//APP
	mov	x9, x11
	//NO_APP
	subs	w8, w8, #3
	cset	w8, eq
	mov	w11, w8
	//APP
	mov	x10, x11

	//NO_APP
	//APP
	b	ConditionalJumpFunc_byX10
	//NO_APP
	tbnz	w8, #0, .LBB1_58
	b	.LBB1_18
.Ltmp5:                                 // Block address taken
.LBB1_18:                               //   in Loop: Header=BB1_3 Depth=1
	ldur	w8, [x29, #-212]                // 4-byte Folded Reload
	mov	x12, #1                         // =0x1
	lsl	x11, x12, #2
	add	x11, x11, #15
	and	x13, x11, #0xfffffffffffffff0
	mov	x11, sp
	subs	x11, x11, x13
	mov	sp, x11
	sub	x13, x29, #176
	stur	x11, [x13, #-256]               // 8-byte Folded Spill
	str	wzr, [x11]
	lsl	x13, x12, #2
	add	x13, x13, #15
	and	x14, x13, #0xfffffffffffffff0
	mov	x13, sp
	subs	x13, x13, x14
	mov	sp, x13
	sub	x14, x29, #168
	stur	x13, [x14, #-256]               // 8-byte Folded Spill
	str	wzr, [x13]
	lsl	x13, x12, #2
	add	x13, x13, #15
	and	x14, x13, #0xfffffffffffffff0
	mov	x13, sp
	subs	x13, x13, x14
	mov	sp, x13
	sub	x14, x29, #160
	stur	x13, [x14, #-256]               // 8-byte Folded Spill
	str	wzr, [x13]
	lsl	x13, x12, #2
	add	x13, x13, #15
	and	x14, x13, #0xfffffffffffffff0
	mov	x13, sp
	subs	x13, x13, x14
	mov	sp, x13
	sub	x14, x29, #152
	stur	x13, [x14, #-256]               // 8-byte Folded Spill
	str	wzr, [x13]
	lsl	x13, x12, #2
	add	x13, x13, #15
	and	x14, x13, #0xfffffffffffffff0
	mov	x13, sp
	subs	x13, x13, x14
	mov	sp, x13
	sub	x14, x29, #144
	stur	x13, [x14, #-256]               // 8-byte Folded Spill
	str	wzr, [x13]
	lsl	x12, x12, #2
	add	x12, x12, #15
	and	x13, x12, #0xfffffffffffffff0
	mov	x12, sp
	subs	x12, x12, x13
	mov	sp, x12
	sub	x13, x29, #136
	stur	x12, [x13, #-256]               // 8-byte Folded Spill
	str	wzr, [x11]
	mov	x11, #6                         // =0x6
	movk	x11, #20, lsl #16
	movk	x11, #5, lsl #32
	movk	x11, #1, lsl #48
	//APP
	mov	x9, x11
	//NO_APP
	subs	w8, w8, #4
	cset	w8, eq
	sub	x11, x29, #124
	stur	w8, [x11, #-256]                // 4-byte Folded Spill
	//APP
	mov	x10, x8

	//NO_APP
	b	.LBB1_213
.LBB1_19:                               // %.split125
                                        //   in Loop: Header=BB1_3 Depth=1
	b	.LBB1_20
.LBB1_20:                               // %.split125.split
                                        //   in Loop: Header=BB1_3 Depth=1
	sub	x8, x29, #124
	ldur	w8, [x8, #-256]                 // 4-byte Folded Reload
	//APP
	b	ConditionalJumpFunc_byX10
	//NO_APP
	tbnz	w8, #0, .LBB1_61
	b	.LBB1_21
.Ltmp6:                                 // Block address taken
.LBB1_21:                               //   in Loop: Header=BB1_3 Depth=1
	mov	x11, #1                         // =0x1
	lsl	x8, x11, #2
	add	x8, x8, #15
	and	x12, x8, #0xfffffffffffffff0
	mov	x8, sp
	subs	x8, x8, x12
	mov	sp, x8
	sub	x12, x29, #224
	stur	x8, [x12, #-256]                // 8-byte Folded Spill
	str	wzr, [x8]
	lsl	x12, x11, #2
	add	x12, x12, #15
	and	x13, x12, #0xfffffffffffffff0
	mov	x12, sp
	subs	x12, x12, x13
	mov	sp, x12
	sub	x13, x29, #216
	stur	x12, [x13, #-256]               // 8-byte Folded Spill
	str	wzr, [x12]
	lsl	x12, x11, #2
	add	x12, x12, #15
	and	x13, x12, #0xfffffffffffffff0
	mov	x12, sp
	subs	x12, x12, x13
	mov	sp, x12
	sub	x13, x29, #208
	stur	x12, [x13, #-256]               // 8-byte Folded Spill
	str	wzr, [x12]
	lsl	x12, x11, #2
	add	x12, x12, #15
	and	x13, x12, #0xfffffffffffffff0
	mov	x12, sp
	subs	x12, x12, x13
	mov	sp, x12
	sub	x13, x29, #200
	stur	x12, [x13, #-256]               // 8-byte Folded Spill
	str	wzr, [x12]
	lsl	x12, x11, #2
	add	x12, x12, #15
	and	x13, x12, #0xfffffffffffffff0
	mov	x12, sp
	subs	x12, x12, x13
	mov	sp, x12
	sub	x13, x29, #192
	stur	x12, [x13, #-256]               // 8-byte Folded Spill
	str	wzr, [x12]
	lsl	x11, x11, #2
	add	x11, x11, #15
	and	x12, x11, #0xfffffffffffffff0
	mov	x11, sp
	subs	x11, x11, x12
	mov	sp, x11
	sub	x12, x29, #184
	stur	x11, [x12, #-256]               // 8-byte Folded Spill
	str	wzr, [x8]
	b	.LBB1_229
.LBB1_22:                               // %.split148
                                        //   in Loop: Header=BB1_3 Depth=1
	mov	x8, #7                          // =0x7
	movk	x8, #21, lsl #16
	movk	x8, #6, lsl #32
	movk	x8, #1, lsl #48
	//APP
	mov	x9, x8
	//NO_APP
	b	.LBB1_23
.LBB1_23:                               // %.split148.split
                                        //   in Loop: Header=BB1_3 Depth=1
	ldur	w8, [x29, #-212]                // 4-byte Folded Reload
	subs	w8, w8, #5
	cset	w8, eq
	mov	w11, w8
	//APP
	mov	x10, x11

	//NO_APP
	//APP
	b	ConditionalJumpFunc_byX10
	//NO_APP
	tbnz	w8, #0, .LBB1_64
	b	.LBB1_24
.Ltmp7:                                 // Block address taken
.LBB1_24:                               //   in Loop: Header=BB1_3 Depth=1
	mov	x11, #1                         // =0x1
	lsl	x8, x11, #2
	add	x8, x8, #15
	and	x12, x8, #0xfffffffffffffff0
	mov	x8, sp
	subs	x8, x8, x12
	mov	sp, x8
	sub	x12, x29, #272
	stur	x8, [x12, #-256]                // 8-byte Folded Spill
	str	wzr, [x8]
	lsl	x12, x11, #2
	add	x12, x12, #15
	and	x13, x12, #0xfffffffffffffff0
	mov	x12, sp
	subs	x12, x12, x13
	mov	sp, x12
	sub	x13, x29, #264
	stur	x12, [x13, #-256]               // 8-byte Folded Spill
	str	wzr, [x12]
	lsl	x12, x11, #2
	add	x12, x12, #15
	and	x13, x12, #0xfffffffffffffff0
	mov	x12, sp
	subs	x12, x12, x13
	mov	sp, x12
	sub	x13, x29, #256
	stur	x12, [x13, #-256]               // 8-byte Folded Spill
	str	wzr, [x12]
	lsl	x12, x11, #2
	add	x12, x12, #15
	and	x13, x12, #0xfffffffffffffff0
	mov	x12, sp
	subs	x12, x12, x13
	mov	sp, x12
	sub	x13, x29, #248
	stur	x12, [x13, #-256]               // 8-byte Folded Spill
	str	wzr, [x12]
	lsl	x12, x11, #2
	add	x12, x12, #15
	and	x13, x12, #0xfffffffffffffff0
	mov	x12, sp
	subs	x12, x12, x13
	mov	sp, x12
	sub	x13, x29, #240
	stur	x12, [x13, #-256]               // 8-byte Folded Spill
	str	wzr, [x12]
	lsl	x11, x11, #2
	add	x11, x11, #15
	and	x12, x11, #0xfffffffffffffff0
	mov	x11, sp
	subs	x11, x11, x12
	mov	sp, x11
	sub	x12, x29, #232
	stur	x11, [x12, #-256]               // 8-byte Folded Spill
	str	wzr, [x8]
	mov	x8, #8                          // =0x8
	movk	x8, #22, lsl #16
	movk	x8, #7, lsl #32
	movk	x8, #1, lsl #48
	//APP
	mov	x9, x8
	//NO_APP
	b	.LBB1_245
.LBB1_25:                               // %.split171
                                        //   in Loop: Header=BB1_3 Depth=1
	ldur	w8, [x29, #-212]                // 4-byte Folded Reload
	subs	w8, w8, #6
	cset	w8, eq
	sub	x11, x29, #276
	stur	w8, [x11, #-256]                // 4-byte Folded Spill
	//APP
	mov	x10, x8

	//NO_APP
	b	.LBB1_26
.LBB1_26:                               // %.split171.split
                                        //   in Loop: Header=BB1_3 Depth=1
	sub	x8, x29, #276
	ldur	w8, [x8, #-256]                 // 4-byte Folded Reload
	//APP
	b	ConditionalJumpFunc_byX10
	//NO_APP
	tbnz	w8, #0, .LBB1_67
	b	.LBB1_27
.Ltmp8:                                 // Block address taken
.LBB1_27:                               //   in Loop: Header=BB1_3 Depth=1
	mov	x11, #1                         // =0x1
	lsl	x8, x11, #2
	add	x8, x8, #15
	and	x12, x8, #0xfffffffffffffff0
	mov	x8, sp
	subs	x8, x8, x12
	mov	sp, x8
	sub	x12, x29, #328
	stur	x8, [x12, #-256]                // 8-byte Folded Spill
	str	wzr, [x8]
	lsl	x12, x11, #2
	add	x12, x12, #15
	and	x13, x12, #0xfffffffffffffff0
	mov	x12, sp
	subs	x12, x12, x13
	mov	sp, x12
	sub	x13, x29, #320
	stur	x12, [x13, #-256]               // 8-byte Folded Spill
	str	wzr, [x12]
	lsl	x12, x11, #2
	add	x12, x12, #15
	and	x13, x12, #0xfffffffffffffff0
	mov	x12, sp
	subs	x12, x12, x13
	mov	sp, x12
	sub	x13, x29, #312
	stur	x12, [x13, #-256]               // 8-byte Folded Spill
	str	wzr, [x12]
	lsl	x12, x11, #2
	add	x12, x12, #15
	and	x13, x12, #0xfffffffffffffff0
	mov	x12, sp
	subs	x12, x12, x13
	mov	sp, x12
	sub	x13, x29, #304
	stur	x12, [x13, #-256]               // 8-byte Folded Spill
	str	wzr, [x12]
	lsl	x12, x11, #2
	add	x12, x12, #15
	and	x13, x12, #0xfffffffffffffff0
	mov	x12, sp
	subs	x12, x12, x13
	mov	sp, x12
	sub	x13, x29, #296
	stur	x12, [x13, #-256]               // 8-byte Folded Spill
	str	wzr, [x12]
	lsl	x11, x11, #2
	add	x11, x11, #15
	and	x12, x11, #0xfffffffffffffff0
	mov	x11, sp
	subs	x11, x11, x12
	mov	sp, x11
	sub	x12, x29, #288
	stur	x11, [x12, #-256]               // 8-byte Folded Spill
	str	wzr, [x8]
	mov	x8, #9                          // =0x9
	movk	x8, #23, lsl #16
	movk	x8, #8, lsl #32
	movk	x8, #1, lsl #48
	//APP
	mov	x9, x8
	//NO_APP
	b	.LBB1_261
.LBB1_28:                               // %.split194
                                        //   in Loop: Header=BB1_3 Depth=1
	ldur	w8, [x29, #-212]                // 4-byte Folded Reload
	subs	w8, w8, #7
	cset	w8, eq
	sub	x11, x29, #332
	stur	w8, [x11, #-256]                // 4-byte Folded Spill
	b	.LBB1_29
.LBB1_29:                               // %.split194.split
                                        //   in Loop: Header=BB1_3 Depth=1
	sub	x8, x29, #332
	ldur	w8, [x8, #-256]                 // 4-byte Folded Reload
	mov	w11, w8
	//APP
	mov	x10, x11

	//NO_APP
	//APP
	b	ConditionalJumpFunc_byX10
	//NO_APP
	tbnz	w8, #0, .LBB1_70
	b	.LBB1_30
.Ltmp9:                                 // Block address taken
.LBB1_30:                               //   in Loop: Header=BB1_3 Depth=1
	mov	x11, #1                         // =0x1
	lsl	x8, x11, #2
	add	x8, x8, #15
	and	x12, x8, #0xfffffffffffffff0
	mov	x8, sp
	subs	x8, x8, x12
	mov	sp, x8
	sub	x12, x29, #384
	stur	x8, [x12, #-256]                // 8-byte Folded Spill
	str	wzr, [x8]
	lsl	x12, x11, #2
	add	x12, x12, #15
	and	x13, x12, #0xfffffffffffffff0
	mov	x12, sp
	subs	x12, x12, x13
	mov	sp, x12
	sub	x13, x29, #376
	stur	x12, [x13, #-256]               // 8-byte Folded Spill
	str	wzr, [x12]
	lsl	x12, x11, #2
	add	x12, x12, #15
	and	x13, x12, #0xfffffffffffffff0
	mov	x12, sp
	subs	x12, x12, x13
	mov	sp, x12
	sub	x13, x29, #368
	stur	x12, [x13, #-256]               // 8-byte Folded Spill
	str	wzr, [x12]
	lsl	x12, x11, #2
	add	x12, x12, #15
	and	x13, x12, #0xfffffffffffffff0
	mov	x12, sp
	subs	x12, x12, x13
	mov	sp, x12
	sub	x13, x29, #360
	stur	x12, [x13, #-256]               // 8-byte Folded Spill
	str	wzr, [x12]
	lsl	x12, x11, #2
	add	x12, x12, #15
	and	x13, x12, #0xfffffffffffffff0
	mov	x12, sp
	subs	x12, x12, x13
	mov	sp, x12
	sub	x13, x29, #352
	stur	x12, [x13, #-256]               // 8-byte Folded Spill
	str	wzr, [x12]
	lsl	x11, x11, #2
	add	x11, x11, #15
	and	x12, x11, #0xfffffffffffffff0
	mov	x11, sp
	subs	x11, x11, x12
	mov	sp, x11
	sub	x12, x29, #344
	stur	x11, [x12, #-256]               // 8-byte Folded Spill
	str	wzr, [x8]
	mov	x8, #10                         // =0xa
	movk	x8, #24, lsl #16
	movk	x8, #9, lsl #32
	movk	x8, #1, lsl #48
	//APP
	mov	x9, x8
	//NO_APP
	b	.LBB1_277
.LBB1_31:                               // %.split217
                                        //   in Loop: Header=BB1_3 Depth=1
	ldur	w8, [x29, #-212]                // 4-byte Folded Reload
	subs	w8, w8, #8
	cset	w8, eq
	sub	x11, x29, #388
	stur	w8, [x11, #-256]                // 4-byte Folded Spill
	//APP
	mov	x10, x8

	//NO_APP
	b	.LBB1_32
.LBB1_32:                               // %.split217.split
                                        //   in Loop: Header=BB1_3 Depth=1
	sub	x8, x29, #388
	ldur	w8, [x8, #-256]                 // 4-byte Folded Reload
	//APP
	b	ConditionalJumpFunc_byX10
	//NO_APP
	tbnz	w8, #0, .LBB1_73
	b	.LBB1_33
.Ltmp10:                                // Block address taken
.LBB1_33:                               //   in Loop: Header=BB1_3 Depth=1
	ldur	w8, [x29, #-212]                // 4-byte Folded Reload
	mov	x12, #1                         // =0x1
	lsl	x11, x12, #2
	add	x11, x11, #15
	and	x13, x11, #0xfffffffffffffff0
	mov	x11, sp
	subs	x11, x11, x13
	mov	sp, x11
	sub	x13, x29, #440
	stur	x11, [x13, #-256]               // 8-byte Folded Spill
	str	wzr, [x11]
	lsl	x13, x12, #2
	add	x13, x13, #15
	and	x14, x13, #0xfffffffffffffff0
	mov	x13, sp
	subs	x13, x13, x14
	mov	sp, x13
	sub	x14, x29, #432
	stur	x13, [x14, #-256]               // 8-byte Folded Spill
	str	wzr, [x13]
	lsl	x13, x12, #2
	add	x13, x13, #15
	and	x14, x13, #0xfffffffffffffff0
	mov	x13, sp
	subs	x13, x13, x14
	mov	sp, x13
	sub	x14, x29, #424
	stur	x13, [x14, #-256]               // 8-byte Folded Spill
	str	wzr, [x13]
	lsl	x13, x12, #2
	add	x13, x13, #15
	and	x14, x13, #0xfffffffffffffff0
	mov	x13, sp
	subs	x13, x13, x14
	mov	sp, x13
	sub	x14, x29, #416
	stur	x13, [x14, #-256]               // 8-byte Folded Spill
	str	wzr, [x13]
	lsl	x13, x12, #2
	add	x13, x13, #15
	and	x14, x13, #0xfffffffffffffff0
	mov	x13, sp
	subs	x13, x13, x14
	mov	sp, x13
	sub	x14, x29, #408
	stur	x13, [x14, #-256]               // 8-byte Folded Spill
	str	wzr, [x13]
	lsl	x12, x12, #2
	add	x12, x12, #15
	and	x13, x12, #0xfffffffffffffff0
	mov	x12, sp
	subs	x12, x12, x13
	mov	sp, x12
	sub	x13, x29, #400
	stur	x12, [x13, #-256]               // 8-byte Folded Spill
	str	wzr, [x11]
	mov	x11, #11                        // =0xb
	movk	x11, #25, lsl #16
	movk	x11, #10, lsl #32
	movk	x11, #1, lsl #48
	//APP
	mov	x9, x11
	//NO_APP
	subs	w8, w8, #9
	cset	w8, eq
	sub	x11, x29, #392
	stur	w8, [x11, #-256]                // 4-byte Folded Spill
	//APP
	mov	x10, x8

	//NO_APP
	b	.LBB1_293
.LBB1_34:                               // %.split240
                                        //   in Loop: Header=BB1_3 Depth=1
	b	.LBB1_35
.LBB1_35:                               // %.split240.split
                                        //   in Loop: Header=BB1_3 Depth=1
	sub	x8, x29, #392
	ldur	w8, [x8, #-256]                 // 4-byte Folded Reload
	//APP
	b	ConditionalJumpFunc_byX10
	//NO_APP
	tbnz	w8, #0, .LBB1_76
	b	.LBB1_36
.Ltmp11:                                // Block address taken
.LBB1_36:                               //   in Loop: Header=BB1_3 Depth=1
	ldur	w8, [x29, #-212]                // 4-byte Folded Reload
	mov	x12, #1                         // =0x1
	lsl	x11, x12, #2
	add	x11, x11, #15
	and	x13, x11, #0xfffffffffffffff0
	mov	x11, sp
	subs	x11, x11, x13
	mov	sp, x11
	sub	x13, x29, #496
	stur	x11, [x13, #-256]               // 8-byte Folded Spill
	str	wzr, [x11]
	lsl	x13, x12, #2
	add	x13, x13, #15
	and	x14, x13, #0xfffffffffffffff0
	mov	x13, sp
	subs	x13, x13, x14
	mov	sp, x13
	sub	x14, x29, #488
	stur	x13, [x14, #-256]               // 8-byte Folded Spill
	str	wzr, [x13]
	lsl	x13, x12, #2
	add	x13, x13, #15
	and	x14, x13, #0xfffffffffffffff0
	mov	x13, sp
	subs	x13, x13, x14
	mov	sp, x13
	sub	x14, x29, #480
	stur	x13, [x14, #-256]               // 8-byte Folded Spill
	str	wzr, [x13]
	lsl	x13, x12, #2
	add	x13, x13, #15
	and	x14, x13, #0xfffffffffffffff0
	mov	x13, sp
	subs	x13, x13, x14
	mov	sp, x13
	sub	x14, x29, #472
	stur	x13, [x14, #-256]               // 8-byte Folded Spill
	str	wzr, [x13]
	lsl	x13, x12, #2
	add	x13, x13, #15
	and	x14, x13, #0xfffffffffffffff0
	mov	x13, sp
	subs	x13, x13, x14
	mov	sp, x13
	sub	x14, x29, #464
	stur	x13, [x14, #-256]               // 8-byte Folded Spill
	str	wzr, [x13]
	lsl	x12, x12, #2
	add	x12, x12, #15
	and	x13, x12, #0xfffffffffffffff0
	mov	x12, sp
	subs	x12, x12, x13
	mov	sp, x12
	sub	x13, x29, #456
	stur	x12, [x13, #-256]               // 8-byte Folded Spill
	str	wzr, [x11]
	mov	x11, #12                        // =0xc
	movk	x11, #26, lsl #16
	movk	x11, #11, lsl #32
	movk	x11, #1, lsl #48
	//APP
	mov	x9, x11
	//NO_APP
	subs	w8, w8, #10
	cset	w8, eq
	sub	x11, x29, #444
	stur	w8, [x11, #-256]                // 4-byte Folded Spill
	b	.LBB1_309
.LBB1_37:                               // %.split263
                                        //   in Loop: Header=BB1_3 Depth=1
	b	.LBB1_38
.LBB1_38:                               // %.split263.split
                                        //   in Loop: Header=BB1_3 Depth=1
	sub	x8, x29, #444
	ldur	w8, [x8, #-256]                 // 4-byte Folded Reload
	mov	w11, w8
	//APP
	mov	x10, x11

	//NO_APP
	//APP
	b	ConditionalJumpFunc_byX10
	//NO_APP
	tbnz	w8, #0, .LBB1_79
	b	.LBB1_39
.Ltmp12:                                // Block address taken
.LBB1_39:                               //   in Loop: Header=BB1_3 Depth=1
	mov	x11, #1                         // =0x1
	lsl	x8, x11, #2
	add	x8, x8, #15
	and	x12, x8, #0xfffffffffffffff0
	mov	x8, sp
	subs	x8, x8, x12
	mov	sp, x8
	sub	x12, x29, #544
	stur	x8, [x12, #-256]                // 8-byte Folded Spill
	str	wzr, [x8]
	lsl	x12, x11, #2
	add	x12, x12, #15
	and	x13, x12, #0xfffffffffffffff0
	mov	x12, sp
	subs	x12, x12, x13
	mov	sp, x12
	sub	x13, x29, #536
	stur	x12, [x13, #-256]               // 8-byte Folded Spill
	str	wzr, [x12]
	lsl	x12, x11, #2
	add	x12, x12, #15
	and	x13, x12, #0xfffffffffffffff0
	mov	x12, sp
	subs	x12, x12, x13
	mov	sp, x12
	sub	x13, x29, #528
	stur	x12, [x13, #-256]               // 8-byte Folded Spill
	str	wzr, [x12]
	lsl	x12, x11, #2
	add	x12, x12, #15
	and	x13, x12, #0xfffffffffffffff0
	mov	x12, sp
	subs	x12, x12, x13
	mov	sp, x12
	sub	x13, x29, #520
	stur	x12, [x13, #-256]               // 8-byte Folded Spill
	str	wzr, [x12]
	lsl	x12, x11, #2
	add	x12, x12, #15
	and	x13, x12, #0xfffffffffffffff0
	mov	x12, sp
	subs	x12, x12, x13
	mov	sp, x12
	sub	x13, x29, #512
	stur	x12, [x13, #-256]               // 8-byte Folded Spill
	str	wzr, [x12]
	lsl	x11, x11, #2
	add	x11, x11, #15
	and	x12, x11, #0xfffffffffffffff0
	mov	x11, sp
	subs	x11, x11, x12
	mov	sp, x11
	sub	x12, x29, #504
	stur	x11, [x12, #-256]               // 8-byte Folded Spill
	str	wzr, [x8]
	mov	x8, #13                         // =0xd
	movk	x8, #27, lsl #16
	movk	x8, #12, lsl #32
	movk	x8, #1, lsl #48
	//APP
	mov	x9, x8
	//NO_APP
	b	.LBB1_325
.LBB1_40:                               // %.split286
                                        //   in Loop: Header=BB1_3 Depth=1
	ldur	w8, [x29, #-212]                // 4-byte Folded Reload
	subs	w8, w8, #11
	cset	w8, eq
	sub	x11, x29, #548
	stur	w8, [x11, #-256]                // 4-byte Folded Spill
	//APP
	mov	x10, x8

	//NO_APP
	b	.LBB1_41
.LBB1_41:                               // %.split286.split
                                        //   in Loop: Header=BB1_3 Depth=1
	sub	x8, x29, #548
	ldur	w8, [x8, #-256]                 // 4-byte Folded Reload
	//APP
	b	ConditionalJumpFunc_byX10
	//NO_APP
	tbnz	w8, #0, .LBB1_82
	b	.LBB1_42
.Ltmp13:                                // Block address taken
.LBB1_42:                               //   in Loop: Header=BB1_3 Depth=1
	ldur	w8, [x29, #-212]                // 4-byte Folded Reload
	mov	x12, #1                         // =0x1
	lsl	x11, x12, #2
	add	x11, x11, #15
	and	x13, x11, #0xfffffffffffffff0
	mov	x11, sp
	subs	x11, x11, x13
	mov	sp, x11
	sub	x13, x29, #600
	stur	x11, [x13, #-256]               // 8-byte Folded Spill
	str	wzr, [x11]
	lsl	x13, x12, #2
	add	x13, x13, #15
	and	x14, x13, #0xfffffffffffffff0
	mov	x13, sp
	subs	x13, x13, x14
	mov	sp, x13
	sub	x14, x29, #592
	stur	x13, [x14, #-256]               // 8-byte Folded Spill
	str	wzr, [x13]
	lsl	x13, x12, #2
	add	x13, x13, #15
	and	x14, x13, #0xfffffffffffffff0
	mov	x13, sp
	subs	x13, x13, x14
	mov	sp, x13
	sub	x14, x29, #584
	stur	x13, [x14, #-256]               // 8-byte Folded Spill
	str	wzr, [x13]
	lsl	x13, x12, #2
	add	x13, x13, #15
	and	x14, x13, #0xfffffffffffffff0
	mov	x13, sp
	subs	x13, x13, x14
	mov	sp, x13
	sub	x14, x29, #576
	stur	x13, [x14, #-256]               // 8-byte Folded Spill
	str	wzr, [x13]
	lsl	x13, x12, #2
	add	x13, x13, #15
	and	x14, x13, #0xfffffffffffffff0
	mov	x13, sp
	subs	x13, x13, x14
	mov	sp, x13
	sub	x14, x29, #568
	stur	x13, [x14, #-256]               // 8-byte Folded Spill
	str	wzr, [x13]
	lsl	x12, x12, #2
	add	x12, x12, #15
	and	x13, x12, #0xfffffffffffffff0
	mov	x12, sp
	subs	x12, x12, x13
	mov	sp, x12
	sub	x13, x29, #560
	stur	x12, [x13, #-256]               // 8-byte Folded Spill
	str	wzr, [x11]
	mov	x11, #14                        // =0xe
	movk	x11, #31, lsl #16
	movk	x11, #13, lsl #32
	movk	x11, #1, lsl #48
	//APP
	mov	x9, x11
	//NO_APP
	subs	w8, w8, #12
	cset	w8, eq
	sub	x11, x29, #552
	stur	w8, [x11, #-256]                // 4-byte Folded Spill
	//APP
	mov	x10, x8

	//NO_APP
	b	.LBB1_341
.LBB1_43:                               // %.split309
                                        //   in Loop: Header=BB1_3 Depth=1
	b	.LBB1_44
.LBB1_44:                               // %.split309.split
                                        //   in Loop: Header=BB1_3 Depth=1
	sub	x8, x29, #552
	ldur	w8, [x8, #-256]                 // 4-byte Folded Reload
	//APP
	b	ConditionalJumpFunc_byX10
	//NO_APP
	tbnz	w8, #0, .LBB1_92
	b	.LBB1_45
.Ltmp14:                                // Block address taken
.LBB1_45:                               //   in Loop: Header=BB1_3 Depth=1
	mov	x11, #1                         // =0x1
	lsl	x8, x11, #2
	add	x8, x8, #15
	and	x12, x8, #0xfffffffffffffff0
	mov	x8, sp
	subs	x8, x8, x12
	mov	sp, x8
	sub	x12, x29, #648
	stur	x8, [x12, #-256]                // 8-byte Folded Spill
	str	wzr, [x8]
	lsl	x12, x11, #2
	add	x12, x12, #15
	and	x13, x12, #0xfffffffffffffff0
	mov	x12, sp
	subs	x12, x12, x13
	mov	sp, x12
	sub	x13, x29, #640
	stur	x12, [x13, #-256]               // 8-byte Folded Spill
	str	wzr, [x12]
	lsl	x12, x11, #2
	add	x12, x12, #15
	and	x13, x12, #0xfffffffffffffff0
	mov	x12, sp
	subs	x12, x12, x13
	mov	sp, x12
	sub	x13, x29, #632
	stur	x12, [x13, #-256]               // 8-byte Folded Spill
	str	wzr, [x12]
	lsl	x12, x11, #2
	add	x12, x12, #15
	and	x13, x12, #0xfffffffffffffff0
	mov	x12, sp
	subs	x12, x12, x13
	mov	sp, x12
	sub	x13, x29, #624
	stur	x12, [x13, #-256]               // 8-byte Folded Spill
	str	wzr, [x12]
	lsl	x12, x11, #2
	add	x12, x12, #15
	and	x13, x12, #0xfffffffffffffff0
	mov	x12, sp
	subs	x12, x12, x13
	mov	sp, x12
	sub	x13, x29, #616
	stur	x12, [x13, #-256]               // 8-byte Folded Spill
	str	wzr, [x12]
	lsl	x11, x11, #2
	add	x11, x11, #15
	and	x12, x11, #0xfffffffffffffff0
	mov	x11, sp
	subs	x11, x11, x12
	mov	sp, x11
	sub	x12, x29, #608
	stur	x11, [x12, #-256]               // 8-byte Folded Spill
	str	wzr, [x8]
	b	.LBB1_357
.LBB1_46:                               // %.split332
                                        //   in Loop: Header=BB1_3 Depth=1
	mov	x8, #15                         // =0xf
	movk	x8, #32, lsl #16
	movk	x8, #14, lsl #32
	movk	x8, #1, lsl #48
	//APP
	mov	x9, x8
	//NO_APP
	b	.LBB1_47
.LBB1_47:                               // %.split332.split
                                        //   in Loop: Header=BB1_3 Depth=1
	ldur	w8, [x29, #-212]                // 4-byte Folded Reload
	subs	w8, w8, #13
	cset	w8, eq
	mov	w11, w8
	//APP
	mov	x10, x11

	//NO_APP
	//APP
	b	ConditionalJumpFunc_byX10
	//NO_APP
	tbnz	w8, #0, .LBB1_95
	b	.LBB1_48
.Ltmp15:                                // Block address taken
.LBB1_48:
	b	.LBB1_111
.Ltmp16:                                // Block address taken
.LBB1_49:                               //   in Loop: Header=BB1_3 Depth=1
	mov	x11, #1                         // =0x1
	lsl	x8, x11, #2
	add	x8, x8, #15
	and	x12, x8, #0xfffffffffffffff0
	mov	x8, sp
	subs	x8, x8, x12
	mov	sp, x8
	sub	x12, x29, #696
	stur	x8, [x12, #-256]                // 8-byte Folded Spill
	str	wzr, [x8]
	lsl	x12, x11, #2
	add	x12, x12, #15
	and	x13, x12, #0xfffffffffffffff0
	mov	x12, sp
	subs	x12, x12, x13
	mov	sp, x12
	sub	x13, x29, #688
	stur	x12, [x13, #-256]               // 8-byte Folded Spill
	str	wzr, [x12]
	lsl	x12, x11, #2
	add	x12, x12, #15
	and	x13, x12, #0xfffffffffffffff0
	mov	x12, sp
	subs	x12, x12, x13
	mov	sp, x12
	sub	x13, x29, #680
	stur	x12, [x13, #-256]               // 8-byte Folded Spill
	str	wzr, [x12]
	lsl	x12, x11, #2
	add	x12, x12, #15
	and	x13, x12, #0xfffffffffffffff0
	mov	x12, sp
	subs	x12, x12, x13
	mov	sp, x12
	sub	x13, x29, #672
	stur	x12, [x13, #-256]               // 8-byte Folded Spill
	str	wzr, [x12]
	lsl	x12, x11, #2
	add	x12, x12, #15
	and	x13, x12, #0xfffffffffffffff0
	mov	x12, sp
	subs	x12, x12, x13
	mov	sp, x12
	sub	x13, x29, #664
	stur	x12, [x13, #-256]               // 8-byte Folded Spill
	str	wzr, [x12]
	lsl	x11, x11, #2
	add	x11, x11, #15
	and	x12, x11, #0xfffffffffffffff0
	mov	x11, sp
	subs	x11, x11, x12
	mov	sp, x11
	sub	x12, x29, #656
	stur	x11, [x12, #-256]               // 8-byte Folded Spill
	str	wzr, [x8]
	b	.LBB1_373
.LBB1_50:                               // %.split355
                                        //   in Loop: Header=BB1_3 Depth=1
	b	.LBB1_51
.LBB1_51:                               // %.split355.split
                                        //   in Loop: Header=BB1_3 Depth=1
	ldur	x8, [x29, #-72]                 // 8-byte Folded Reload
	str	wzr, [x8]
	b	.LBB1_114
.Ltmp17:                                // Block address taken
.LBB1_52:                               //   in Loop: Header=BB1_3 Depth=1
	mov	x11, #1                         // =0x1
	lsl	x8, x11, #2
	add	x8, x8, #15
	and	x12, x8, #0xfffffffffffffff0
	mov	x8, sp
	subs	x8, x8, x12
	mov	sp, x8
	sub	x12, x29, #760
	stur	x8, [x12, #-256]                // 8-byte Folded Spill
	str	wzr, [x8]
	lsl	x12, x11, #2
	add	x12, x12, #15
	and	x13, x12, #0xfffffffffffffff0
	mov	x12, sp
	subs	x12, x12, x13
	mov	sp, x12
	sub	x13, x29, #752
	stur	x12, [x13, #-256]               // 8-byte Folded Spill
	str	wzr, [x12]
	lsl	x12, x11, #2
	add	x12, x12, #15
	and	x13, x12, #0xfffffffffffffff0
	mov	x12, sp
	subs	x12, x12, x13
	mov	sp, x12
	sub	x13, x29, #744
	stur	x12, [x13, #-256]               // 8-byte Folded Spill
	str	wzr, [x12]
	lsl	x12, x11, #2
	add	x12, x12, #15
	and	x13, x12, #0xfffffffffffffff0
	mov	x12, sp
	subs	x12, x12, x13
	mov	sp, x12
	sub	x13, x29, #736
	stur	x12, [x13, #-256]               // 8-byte Folded Spill
	str	wzr, [x12]
	lsl	x12, x11, #2
	add	x12, x12, #15
	and	x13, x12, #0xfffffffffffffff0
	mov	x12, sp
	subs	x12, x12, x13
	mov	sp, x12
	sub	x13, x29, #728
	stur	x12, [x13, #-256]               // 8-byte Folded Spill
	str	wzr, [x12]
	lsl	x11, x11, #2
	add	x11, x11, #15
	and	x12, x11, #0xfffffffffffffff0
	mov	x11, sp
	subs	x11, x11, x12
	mov	sp, x11
	sub	x12, x29, #720
	stur	x11, [x12, #-256]               // 8-byte Folded Spill
	str	wzr, [x8]
	ldur	x8, [x29, #-32]
	ldr	x8, [x8, #64]
	ldur	x11, [x29, #-32]
	ldr	w11, [x11, #72]
	add	w11, w11, #1
	ldr	w8, [x8, w11, sxtw #2]
	stur	w8, [x29, #-40]
	ldur	x8, [x29, #-32]
	ldr	x8, [x8, #64]
	ldur	x11, [x29, #-32]
	ldr	w11, [x11, #72]
	add	w11, w11, #2
	ldr	w8, [x8, w11, sxtw #2]
	stur	w8, [x29, #-52]
	ldur	w8, [x29, #-52]
	sub	x11, x29, #708
	stur	w8, [x11, #-256]                // 4-byte Folded Spill
	ldur	x8, [x29, #-32]
	sub	x11, x29, #704
	stur	x8, [x11, #-256]                // 8-byte Folded Spill
	b	.LBB1_389
.LBB1_53:                               // %.split378
                                        //   in Loop: Header=BB1_3 Depth=1
	ldursw	x8, [x29, #-40]
	sub	x11, x29, #768
	stur	x8, [x11, #-256]                // 8-byte Folded Spill
	b	.LBB1_54
.LBB1_54:                               // %.split378.split
                                        //   in Loop: Header=BB1_3 Depth=1
	sub	x8, x29, #708
	ldur	w8, [x8, #-256]                 // 4-byte Folded Reload
	sub	x11, x29, #704
	ldur	x11, [x11, #-256]               // 8-byte Folded Reload
	sub	x12, x29, #768
	ldur	x12, [x12, #-256]               // 8-byte Folded Reload
	str	w8, [x11, x12, lsl #2]
	ldur	x11, [x29, #-32]
	ldr	w8, [x11, #72]
	add	w8, w8, #3
	str	w8, [x11, #72]
	b	.LBB1_114
.Ltmp18:                                // Block address taken
.LBB1_55:                               //   in Loop: Header=BB1_3 Depth=1
	mov	x11, #1                         // =0x1
	lsl	x8, x11, #2
	add	x8, x8, #15
	and	x12, x8, #0xfffffffffffffff0
	mov	x8, sp
	subs	x8, x8, x12
	mov	sp, x8
	sub	x12, x29, #832
	stur	x8, [x12, #-256]                // 8-byte Folded Spill
	str	wzr, [x8]
	lsl	x12, x11, #2
	add	x12, x12, #15
	and	x13, x12, #0xfffffffffffffff0
	mov	x12, sp
	subs	x12, x12, x13
	mov	sp, x12
	sub	x13, x29, #824
	stur	x12, [x13, #-256]               // 8-byte Folded Spill
	str	wzr, [x12]
	lsl	x12, x11, #2
	add	x12, x12, #15
	and	x13, x12, #0xfffffffffffffff0
	mov	x12, sp
	subs	x12, x12, x13
	mov	sp, x12
	sub	x13, x29, #816
	stur	x12, [x13, #-256]               // 8-byte Folded Spill
	str	wzr, [x12]
	lsl	x12, x11, #2
	add	x12, x12, #15
	and	x13, x12, #0xfffffffffffffff0
	mov	x12, sp
	subs	x12, x12, x13
	mov	sp, x12
	sub	x13, x29, #808
	stur	x12, [x13, #-256]               // 8-byte Folded Spill
	str	wzr, [x12]
	lsl	x12, x11, #2
	add	x12, x12, #15
	and	x13, x12, #0xfffffffffffffff0
	mov	x12, sp
	subs	x12, x12, x13
	mov	sp, x12
	sub	x13, x29, #800
	stur	x12, [x13, #-256]               // 8-byte Folded Spill
	str	wzr, [x12]
	lsl	x11, x11, #2
	add	x11, x11, #15
	and	x12, x11, #0xfffffffffffffff0
	mov	x11, sp
	subs	x11, x11, x12
	mov	sp, x11
	sub	x12, x29, #792
	stur	x11, [x12, #-256]               // 8-byte Folded Spill
	str	wzr, [x8]
	ldur	x8, [x29, #-32]
	ldr	x8, [x8, #64]
	ldur	x11, [x29, #-32]
	ldr	w11, [x11, #72]
	add	w11, w11, #1
	ldr	w8, [x8, w11, sxtw #2]
	stur	w8, [x29, #-40]
	ldur	x8, [x29, #-32]
	ldr	x8, [x8, #64]
	sub	x11, x29, #784
	stur	x8, [x11, #-256]                // 8-byte Folded Spill
	ldur	x8, [x29, #-32]
	ldr	w8, [x8, #72]
	add	w8, w8, #2
	sub	x11, x29, #772
	stur	w8, [x11, #-256]                // 4-byte Folded Spill
	b	.LBB1_405
.LBB1_56:                               // %.split401
                                        //   in Loop: Header=BB1_3 Depth=1
	sub	x8, x29, #784
	ldur	x8, [x8, #-256]                 // 8-byte Folded Reload
	sub	x11, x29, #772
	ldur	w11, [x11, #-256]               // 4-byte Folded Reload
	ldr	w8, [x8, w11, sxtw #2]
	stur	w8, [x29, #-44]
	ldur	x8, [x29, #-32]
	ldursw	x11, [x29, #-40]
	ldr	w8, [x8, x11, lsl #2]
	sub	x11, x29, #844
	stur	w8, [x11, #-256]                // 4-byte Folded Spill
	ldur	x8, [x29, #-32]
	sub	x11, x29, #840
	stur	x8, [x11, #-256]                // 8-byte Folded Spill
	b	.LBB1_57
.LBB1_57:                               // %.split401.split
                                        //   in Loop: Header=BB1_3 Depth=1
	sub	x8, x29, #844
	ldur	w8, [x8, #-256]                 // 4-byte Folded Reload
	sub	x11, x29, #840
	ldur	x11, [x11, #-256]               // 8-byte Folded Reload
	ldursw	x12, [x29, #-44]
	str	w8, [x11, x12, lsl #2]
	ldur	x11, [x29, #-32]
	ldr	w8, [x11, #72]
	add	w8, w8, #3
	str	w8, [x11, #72]
	b	.LBB1_114
.Ltmp19:                                // Block address taken
.LBB1_58:                               //   in Loop: Header=BB1_3 Depth=1
	mov	x11, #1                         // =0x1
	lsl	x8, x11, #2
	add	x8, x8, #15
	and	x12, x8, #0xfffffffffffffff0
	mov	x8, sp
	subs	x8, x8, x12
	mov	sp, x8
	sub	x12, x29, #904
	stur	x8, [x12, #-256]                // 8-byte Folded Spill
	str	wzr, [x8]
	lsl	x12, x11, #2
	add	x12, x12, #15
	and	x13, x12, #0xfffffffffffffff0
	mov	x12, sp
	subs	x12, x12, x13
	mov	sp, x12
	sub	x13, x29, #896
	stur	x12, [x13, #-256]               // 8-byte Folded Spill
	str	wzr, [x12]
	lsl	x12, x11, #2
	add	x12, x12, #15
	and	x13, x12, #0xfffffffffffffff0
	mov	x12, sp
	subs	x12, x12, x13
	mov	sp, x12
	sub	x13, x29, #888
	stur	x12, [x13, #-256]               // 8-byte Folded Spill
	str	wzr, [x12]
	lsl	x12, x11, #2
	add	x12, x12, #15
	and	x13, x12, #0xfffffffffffffff0
	mov	x12, sp
	subs	x12, x12, x13
	mov	sp, x12
	sub	x13, x29, #880
	stur	x12, [x13, #-256]               // 8-byte Folded Spill
	str	wzr, [x12]
	lsl	x12, x11, #2
	add	x12, x12, #15
	and	x13, x12, #0xfffffffffffffff0
	mov	x12, sp
	subs	x12, x12, x13
	mov	sp, x12
	sub	x13, x29, #872
	stur	x12, [x13, #-256]               // 8-byte Folded Spill
	str	wzr, [x12]
	lsl	x11, x11, #2
	add	x11, x11, #15
	and	x12, x11, #0xfffffffffffffff0
	mov	x11, sp
	subs	x11, x11, x12
	mov	sp, x11
	sub	x12, x29, #864
	stur	x11, [x12, #-256]               // 8-byte Folded Spill
	str	wzr, [x8]
	ldur	x8, [x29, #-32]
	ldr	x8, [x8, #64]
	sub	x11, x29, #856
	stur	x8, [x11, #-256]                // 8-byte Folded Spill
	ldur	x8, [x29, #-32]
	ldr	w8, [x8, #72]
	add	w8, w8, #3
	sub	x11, x29, #848
	stur	w8, [x11, #-256]                // 4-byte Folded Spill
	b	.LBB1_421
.LBB1_59:                               // %.split424
                                        //   in Loop: Header=BB1_3 Depth=1
	sub	x8, x29, #856
	ldur	x8, [x8, #-256]                 // 8-byte Folded Reload
	sub	x11, x29, #848
	ldur	w11, [x11, #-256]               // 4-byte Folded Reload
	ldr	w8, [x8, w11, sxtw #2]
	stur	w8, [x29, #-40]
	ldur	x8, [x29, #-32]
	ldr	x8, [x8, #64]
	sub	x11, x29, #920
	stur	x8, [x11, #-256]                // 8-byte Folded Spill
	ldur	x8, [x29, #-32]
	ldr	w8, [x8, #72]
	add	w8, w8, #2
	sub	x11, x29, #908
	stur	w8, [x11, #-256]                // 4-byte Folded Spill
	b	.LBB1_60
.LBB1_60:                               // %.split424.split
                                        //   in Loop: Header=BB1_3 Depth=1
	sub	x8, x29, #920
	ldur	x8, [x8, #-256]                 // 8-byte Folded Reload
	sub	x11, x29, #908
	ldur	w11, [x11, #-256]               // 4-byte Folded Reload
	ldr	w8, [x8, w11, sxtw #2]
	stur	w8, [x29, #-44]
	ldur	x8, [x29, #-32]
	ldr	x8, [x8, #64]
	ldur	x11, [x29, #-32]
	ldr	w11, [x11, #72]
	add	w11, w11, #1
	ldr	w8, [x8, w11, sxtw #2]
	stur	w8, [x29, #-48]
	ldur	x8, [x29, #-32]
	ldursw	x11, [x29, #-40]
	ldr	w8, [x8, x11, lsl #2]
	ldur	x11, [x29, #-32]
	ldursw	x12, [x29, #-44]
	ldr	w11, [x11, x12, lsl #2]
	add	w8, w8, w11
	ldur	x11, [x29, #-32]
	ldursw	x12, [x29, #-48]
	str	w8, [x11, x12, lsl #2]
	ldur	x11, [x29, #-32]
	ldr	w8, [x11, #72]
	add	w8, w8, #4
	str	w8, [x11, #72]
	b	.LBB1_114
.Ltmp20:                                // Block address taken
.LBB1_61:                               //   in Loop: Header=BB1_3 Depth=1
	mov	x11, #1                         // =0x1
	lsl	x8, x11, #2
	add	x8, x8, #15
	and	x12, x8, #0xfffffffffffffff0
	mov	x8, sp
	subs	x8, x8, x12
	mov	sp, x8
	sub	x12, x29, #976
	stur	x8, [x12, #-256]                // 8-byte Folded Spill
	str	wzr, [x8]
	lsl	x12, x11, #2
	add	x12, x12, #15
	and	x13, x12, #0xfffffffffffffff0
	mov	x12, sp
	subs	x12, x12, x13
	mov	sp, x12
	sub	x13, x29, #968
	stur	x12, [x13, #-256]               // 8-byte Folded Spill
	str	wzr, [x12]
	lsl	x12, x11, #2
	add	x12, x12, #15
	and	x13, x12, #0xfffffffffffffff0
	mov	x12, sp
	subs	x12, x12, x13
	mov	sp, x12
	sub	x13, x29, #960
	stur	x12, [x13, #-256]               // 8-byte Folded Spill
	str	wzr, [x12]
	lsl	x12, x11, #2
	add	x12, x12, #15
	and	x13, x12, #0xfffffffffffffff0
	mov	x12, sp
	subs	x12, x12, x13
	mov	sp, x12
	sub	x13, x29, #952
	stur	x12, [x13, #-256]               // 8-byte Folded Spill
	str	wzr, [x12]
	lsl	x12, x11, #2
	add	x12, x12, #15
	and	x13, x12, #0xfffffffffffffff0
	mov	x12, sp
	subs	x12, x12, x13
	mov	sp, x12
	sub	x13, x29, #944
	stur	x12, [x13, #-256]               // 8-byte Folded Spill
	str	wzr, [x12]
	lsl	x11, x11, #2
	add	x11, x11, #15
	and	x12, x11, #0xfffffffffffffff0
	mov	x11, sp
	subs	x11, x11, x12
	mov	sp, x11
	sub	x12, x29, #936
	stur	x11, [x12, #-256]               // 8-byte Folded Spill
	str	wzr, [x8]
	ldur	x8, [x29, #-32]
	ldr	x8, [x8, #64]
	ldur	x11, [x29, #-32]
	ldr	w11, [x11, #72]
	add	w11, w11, #3
	ldr	w8, [x8, w11, sxtw #2]
	stur	w8, [x29, #-40]
	ldur	x8, [x29, #-32]
	ldr	x8, [x8, #64]
	ldur	x11, [x29, #-32]
	ldr	w11, [x11, #72]
	add	w11, w11, #2
	ldr	w8, [x8, w11, sxtw #2]
	stur	w8, [x29, #-44]
	ldur	x8, [x29, #-32]
	ldr	x8, [x8, #64]
	ldur	x11, [x29, #-32]
	ldr	w11, [x11, #72]
	add	w11, w11, #1
	ldr	w8, [x8, w11, sxtw #2]
	stur	w8, [x29, #-48]
	ldur	x8, [x29, #-32]
	ldursw	x11, [x29, #-40]
	ldr	w8, [x8, x11, lsl #2]
	ldur	x11, [x29, #-32]
	ldursw	x12, [x29, #-44]
	ldr	w11, [x11, x12, lsl #2]
	subs	w8, w8, w11
	sub	x11, x29, #924
	stur	w8, [x11, #-256]                // 4-byte Folded Spill
	b	.LBB1_437
.LBB1_62:                               // %.split447
                                        //   in Loop: Header=BB1_3 Depth=1
	sub	x8, x29, #924
	ldur	w8, [x8, #-256]                 // 4-byte Folded Reload
	ldur	x11, [x29, #-32]
	ldursw	x12, [x29, #-48]
	str	w8, [x11, x12, lsl #2]
	ldur	x8, [x29, #-32]
	sub	x11, x29, #984
	stur	x8, [x11, #-256]                // 8-byte Folded Spill
	b	.LBB1_63
.LBB1_63:                               // %.split447.split
                                        //   in Loop: Header=BB1_3 Depth=1
	sub	x8, x29, #984
	ldur	x11, [x8, #-256]                // 8-byte Folded Reload
	ldr	w8, [x11, #72]
	add	w8, w8, #4
	str	w8, [x11, #72]
	b	.LBB1_114
.Ltmp21:                                // Block address taken
.LBB1_64:                               //   in Loop: Header=BB1_3 Depth=1
	mov	x11, #1                         // =0x1
	lsl	x8, x11, #2
	add	x8, x8, #15
	and	x12, x8, #0xfffffffffffffff0
	mov	x8, sp
	subs	x8, x8, x12
	mov	sp, x8
	sub	x12, x29, #1056
	stur	x8, [x12, #-256]                // 8-byte Folded Spill
	str	wzr, [x8]
	lsl	x12, x11, #2
	add	x12, x12, #15
	and	x13, x12, #0xfffffffffffffff0
	mov	x12, sp
	subs	x12, x12, x13
	mov	sp, x12
	sub	x13, x29, #1048
	stur	x12, [x13, #-256]               // 8-byte Folded Spill
	str	wzr, [x12]
	lsl	x12, x11, #2
	add	x12, x12, #15
	and	x13, x12, #0xfffffffffffffff0
	mov	x12, sp
	subs	x12, x12, x13
	mov	sp, x12
	sub	x13, x29, #1040
	stur	x12, [x13, #-256]               // 8-byte Folded Spill
	str	wzr, [x12]
	lsl	x12, x11, #2
	add	x12, x12, #15
	and	x13, x12, #0xfffffffffffffff0
	mov	x12, sp
	subs	x12, x12, x13
	mov	sp, x12
	sub	x13, x29, #1032
	stur	x12, [x13, #-256]               // 8-byte Folded Spill
	str	wzr, [x12]
	lsl	x12, x11, #2
	add	x12, x12, #15
	and	x13, x12, #0xfffffffffffffff0
	mov	x12, sp
	subs	x12, x12, x13
	mov	sp, x12
	sub	x13, x29, #1024
	stur	x12, [x13, #-256]               // 8-byte Folded Spill
	str	wzr, [x12]
	lsl	x11, x11, #2
	add	x11, x11, #15
	and	x12, x11, #0xfffffffffffffff0
	mov	x11, sp
	subs	x11, x11, x12
	mov	sp, x11
	sub	x12, x29, #1016
	stur	x11, [x12, #-256]               // 8-byte Folded Spill
	str	wzr, [x8]
	ldur	x8, [x29, #-32]
	ldr	x8, [x8, #64]
	ldur	x11, [x29, #-32]
	ldr	w11, [x11, #72]
	add	w11, w11, #3
	ldr	w8, [x8, w11, sxtw #2]
	stur	w8, [x29, #-40]
	ldur	x8, [x29, #-32]
	ldr	x8, [x8, #64]
	ldur	x11, [x29, #-32]
	ldr	w11, [x11, #72]
	add	w11, w11, #2
	ldr	w8, [x8, w11, sxtw #2]
	stur	w8, [x29, #-44]
	ldur	x8, [x29, #-32]
	ldr	x8, [x8, #64]
	ldur	x11, [x29, #-32]
	ldr	w11, [x11, #72]
	add	w11, w11, #1
	ldr	w8, [x8, w11, sxtw #2]
	stur	w8, [x29, #-48]
	ldur	x8, [x29, #-32]
	ldursw	x11, [x29, #-40]
	ldr	w8, [x8, x11, lsl #2]
	sub	x11, x29, #1004
	stur	w8, [x11, #-256]                // 4-byte Folded Spill
	ldur	x8, [x29, #-32]
	sub	x11, x29, #1000
	stur	x8, [x11, #-256]                // 8-byte Folded Spill
	ldursw	x8, [x29, #-44]
	sub	x11, x29, #992
	stur	x8, [x11, #-256]                // 8-byte Folded Spill
	b	.LBB1_453
.LBB1_65:                               // %.split470
                                        //   in Loop: Header=BB1_3 Depth=1
	sub	x8, x29, #1004
	ldur	w8, [x8, #-256]                 // 4-byte Folded Reload
	sub	x11, x29, #1000
	ldur	x11, [x11, #-256]               // 8-byte Folded Reload
	sub	x12, x29, #992
	ldur	x12, [x12, #-256]               // 8-byte Folded Reload
	ldr	w11, [x11, x12, lsl #2]
	mul	w8, w8, w11
	sub	x11, x29, #1076
	stur	w8, [x11, #-256]                // 4-byte Folded Spill
	ldur	x8, [x29, #-32]
	sub	x11, x29, #1072
	stur	x8, [x11, #-256]                // 8-byte Folded Spill
	ldursw	x8, [x29, #-48]
	sub	x11, x29, #1064
	stur	x8, [x11, #-256]                // 8-byte Folded Spill
	b	.LBB1_66
.LBB1_66:                               // %.split470.split
                                        //   in Loop: Header=BB1_3 Depth=1
	sub	x8, x29, #1076
	ldur	w8, [x8, #-256]                 // 4-byte Folded Reload
	sub	x11, x29, #1072
	ldur	x11, [x11, #-256]               // 8-byte Folded Reload
	sub	x12, x29, #1064
	ldur	x12, [x12, #-256]               // 8-byte Folded Reload
	str	w8, [x11, x12, lsl #2]
	ldur	x11, [x29, #-32]
	ldr	w8, [x11, #72]
	add	w8, w8, #4
	str	w8, [x11, #72]
	b	.LBB1_114
.Ltmp22:                                // Block address taken
.LBB1_67:                               //   in Loop: Header=BB1_3 Depth=1
	mov	x11, #1                         // =0x1
	lsl	x8, x11, #2
	add	x8, x8, #15
	and	x12, x8, #0xfffffffffffffff0
	mov	x8, sp
	subs	x8, x8, x12
	mov	sp, x8
	sub	x12, x29, #1128
	stur	x8, [x12, #-256]                // 8-byte Folded Spill
	str	wzr, [x8]
	lsl	x12, x11, #2
	add	x12, x12, #15
	and	x13, x12, #0xfffffffffffffff0
	mov	x12, sp
	subs	x12, x12, x13
	mov	sp, x12
	sub	x13, x29, #1120
	stur	x12, [x13, #-256]               // 8-byte Folded Spill
	str	wzr, [x12]
	lsl	x12, x11, #2
	add	x12, x12, #15
	and	x13, x12, #0xfffffffffffffff0
	mov	x12, sp
	subs	x12, x12, x13
	mov	sp, x12
	sub	x13, x29, #1112
	stur	x12, [x13, #-256]               // 8-byte Folded Spill
	str	wzr, [x12]
	lsl	x12, x11, #2
	add	x12, x12, #15
	and	x13, x12, #0xfffffffffffffff0
	mov	x12, sp
	subs	x12, x12, x13
	mov	sp, x12
	sub	x13, x29, #1104
	stur	x12, [x13, #-256]               // 8-byte Folded Spill
	str	wzr, [x12]
	lsl	x12, x11, #2
	add	x12, x12, #15
	and	x13, x12, #0xfffffffffffffff0
	mov	x12, sp
	subs	x12, x12, x13
	mov	sp, x12
	sub	x13, x29, #1096
	stur	x12, [x13, #-256]               // 8-byte Folded Spill
	str	wzr, [x12]
	lsl	x11, x11, #2
	add	x11, x11, #15
	and	x12, x11, #0xfffffffffffffff0
	mov	x11, sp
	subs	x11, x11, x12
	mov	sp, x11
	sub	x12, x29, #1088
	stur	x11, [x12, #-256]               // 8-byte Folded Spill
	str	wzr, [x8]
	ldur	x8, [x29, #-32]
	ldr	x8, [x8, #64]
	ldur	x11, [x29, #-32]
	ldr	w11, [x11, #72]
	add	w11, w11, #3
	ldr	w8, [x8, w11, sxtw #2]
	stur	w8, [x29, #-40]
	ldur	x8, [x29, #-32]
	ldr	x8, [x8, #64]
	ldur	x11, [x29, #-32]
	ldr	w11, [x11, #72]
	add	w11, w11, #2
	ldr	w8, [x8, w11, sxtw #2]
	stur	w8, [x29, #-44]
	ldur	x8, [x29, #-32]
	ldr	x8, [x8, #64]
	ldur	x11, [x29, #-32]
	ldr	w11, [x11, #72]
	add	w11, w11, #1
	ldr	w8, [x8, w11, sxtw #2]
	stur	w8, [x29, #-48]
	b	.LBB1_469
.LBB1_68:                               // %.split493
                                        //   in Loop: Header=BB1_3 Depth=1
	ldur	x8, [x29, #-32]
	ldursw	x11, [x29, #-40]
	ldr	w8, [x8, x11, lsl #2]
	ldur	x11, [x29, #-32]
	ldursw	x12, [x29, #-44]
	ldr	w11, [x11, x12, lsl #2]
	sdiv	w8, w8, w11
	ldur	x11, [x29, #-32]
	ldursw	x12, [x29, #-48]
	str	w8, [x11, x12, lsl #2]
	ldur	x8, [x29, #-32]
	sub	x11, x29, #1144
	stur	x8, [x11, #-256]                // 8-byte Folded Spill
	ldr	w8, [x8, #72]
	sub	x11, x29, #1132
	stur	w8, [x11, #-256]                // 4-byte Folded Spill
	b	.LBB1_69
.LBB1_69:                               // %.split493.split
                                        //   in Loop: Header=BB1_3 Depth=1
	sub	x8, x29, #1144
	ldur	x11, [x8, #-256]                // 8-byte Folded Reload
	sub	x8, x29, #1132
	ldur	w8, [x8, #-256]                 // 4-byte Folded Reload
	add	w8, w8, #4
	str	w8, [x11, #72]
	b	.LBB1_114
.Ltmp23:                                // Block address taken
.LBB1_70:                               //   in Loop: Header=BB1_3 Depth=1
	mov	x11, #1                         // =0x1
	lsl	x8, x11, #2
	add	x8, x8, #15
	and	x12, x8, #0xfffffffffffffff0
	mov	x8, sp
	subs	x8, x8, x12
	mov	sp, x8
	sub	x12, x29, #1208
	stur	x8, [x12, #-256]                // 8-byte Folded Spill
	str	wzr, [x8]
	lsl	x12, x11, #2
	add	x12, x12, #15
	and	x13, x12, #0xfffffffffffffff0
	mov	x12, sp
	subs	x12, x12, x13
	mov	sp, x12
	sub	x13, x29, #1200
	stur	x12, [x13, #-256]               // 8-byte Folded Spill
	str	wzr, [x12]
	lsl	x12, x11, #2
	add	x12, x12, #15
	and	x13, x12, #0xfffffffffffffff0
	mov	x12, sp
	subs	x12, x12, x13
	mov	sp, x12
	sub	x13, x29, #1192
	stur	x12, [x13, #-256]               // 8-byte Folded Spill
	str	wzr, [x12]
	lsl	x12, x11, #2
	add	x12, x12, #15
	and	x13, x12, #0xfffffffffffffff0
	mov	x12, sp
	subs	x12, x12, x13
	mov	sp, x12
	sub	x13, x29, #1184
	stur	x12, [x13, #-256]               // 8-byte Folded Spill
	str	wzr, [x12]
	lsl	x12, x11, #2
	add	x12, x12, #15
	and	x13, x12, #0xfffffffffffffff0
	mov	x12, sp
	subs	x12, x12, x13
	mov	sp, x12
	sub	x13, x29, #1176
	stur	x12, [x13, #-256]               // 8-byte Folded Spill
	str	wzr, [x12]
	lsl	x11, x11, #2
	add	x11, x11, #15
	and	x12, x11, #0xfffffffffffffff0
	mov	x11, sp
	subs	x11, x11, x12
	mov	sp, x11
	sub	x12, x29, #1168
	stur	x11, [x12, #-256]               // 8-byte Folded Spill
	str	wzr, [x8]
	ldur	x8, [x29, #-32]
	ldr	x8, [x8, #64]
	ldur	x11, [x29, #-32]
	ldr	w11, [x11, #72]
	add	w11, w11, #3
	ldr	w8, [x8, w11, sxtw #2]
	stur	w8, [x29, #-40]
	ldur	x8, [x29, #-32]
	ldr	x8, [x8, #64]
	ldur	x11, [x29, #-32]
	ldr	w11, [x11, #72]
	add	w11, w11, #2
	ldr	w8, [x8, w11, sxtw #2]
	stur	w8, [x29, #-44]
	ldur	x8, [x29, #-32]
	ldr	x8, [x8, #64]
	ldur	x11, [x29, #-32]
	ldr	w11, [x11, #72]
	add	w11, w11, #1
	ldr	w8, [x8, w11, sxtw #2]
	stur	w8, [x29, #-48]
	ldur	x8, [x29, #-32]
	sub	x11, x29, #1160
	stur	x8, [x11, #-256]                // 8-byte Folded Spill
	ldursw	x8, [x29, #-40]
	sub	x11, x29, #1152
	stur	x8, [x11, #-256]                // 8-byte Folded Spill
	b	.LBB1_485
.LBB1_71:                               // %.split516
                                        //   in Loop: Header=BB1_3 Depth=1
	sub	x8, x29, #1160
	ldur	x8, [x8, #-256]                 // 8-byte Folded Reload
	sub	x11, x29, #1152
	ldur	x11, [x11, #-256]               // 8-byte Folded Reload
	ldr	w8, [x8, x11, lsl #2]
	sub	x11, x29, #1228
	stur	w8, [x11, #-256]                // 4-byte Folded Spill
	ldur	x8, [x29, #-32]
	sub	x11, x29, #1224
	stur	x8, [x11, #-256]                // 8-byte Folded Spill
	ldursw	x8, [x29, #-44]
	sub	x11, x29, #1216
	stur	x8, [x11, #-256]                // 8-byte Folded Spill
	b	.LBB1_72
.LBB1_72:                               // %.split516.split
                                        //   in Loop: Header=BB1_3 Depth=1
	sub	x8, x29, #1228
	ldur	w8, [x8, #-256]                 // 4-byte Folded Reload
	sub	x11, x29, #1224
	ldur	x11, [x11, #-256]               // 8-byte Folded Reload
	sub	x12, x29, #1216
	ldur	x12, [x12, #-256]               // 8-byte Folded Reload
	ldr	w11, [x11, x12, lsl #2]
	eor	w8, w8, w11
	ldur	x11, [x29, #-32]
	ldursw	x12, [x29, #-48]
	str	w8, [x11, x12, lsl #2]
	ldur	x11, [x29, #-32]
	ldr	w8, [x11, #72]
	add	w8, w8, #4
	str	w8, [x11, #72]
	b	.LBB1_114
.Ltmp24:                                // Block address taken
.LBB1_73:                               //   in Loop: Header=BB1_3 Depth=1
	mov	x11, #1                         // =0x1
	lsl	x8, x11, #2
	add	x8, x8, #15
	and	x12, x8, #0xfffffffffffffff0
	mov	x8, sp
	subs	x8, x8, x12
	mov	sp, x8
	sub	x12, x29, #1280
	stur	x8, [x12, #-256]                // 8-byte Folded Spill
	str	wzr, [x8]
	lsl	x12, x11, #2
	add	x12, x12, #15
	and	x13, x12, #0xfffffffffffffff0
	mov	x12, sp
	subs	x12, x12, x13
	mov	sp, x12
	sub	x13, x29, #1272
	stur	x12, [x13, #-256]               // 8-byte Folded Spill
	str	wzr, [x12]
	lsl	x12, x11, #2
	add	x12, x12, #15
	and	x13, x12, #0xfffffffffffffff0
	mov	x12, sp
	subs	x12, x12, x13
	mov	sp, x12
	sub	x13, x29, #1264
	stur	x12, [x13, #-256]               // 8-byte Folded Spill
	str	wzr, [x12]
	lsl	x12, x11, #2
	add	x12, x12, #15
	and	x13, x12, #0xfffffffffffffff0
	mov	x12, sp
	subs	x12, x12, x13
	mov	sp, x12
	sub	x13, x29, #1256
	stur	x12, [x13, #-256]               // 8-byte Folded Spill
	str	wzr, [x12]
	lsl	x12, x11, #2
	add	x12, x12, #15
	and	x13, x12, #0xfffffffffffffff0
	mov	x12, sp
	subs	x12, x12, x13
	mov	sp, x12
	sub	x13, x29, #1248
	stur	x12, [x13, #-256]               // 8-byte Folded Spill
	str	wzr, [x12]
	lsl	x11, x11, #2
	add	x11, x11, #15
	and	x12, x11, #0xfffffffffffffff0
	mov	x11, sp
	subs	x11, x11, x12
	mov	sp, x11
	sub	x12, x29, #1240
	stur	x11, [x12, #-256]               // 8-byte Folded Spill
	str	wzr, [x8]
	ldur	x8, [x29, #-32]
	ldr	x8, [x8, #64]
	ldur	x11, [x29, #-32]
	ldr	w11, [x11, #72]
	add	w11, w11, #1
	ldr	w8, [x8, w11, sxtw #2]
	stur	w8, [x29, #-52]
	ldur	w8, [x29, #-52]
	sub	x11, x29, #1232
	stur	w8, [x11, #-256]                // 4-byte Folded Spill
	b	.LBB1_501
.LBB1_74:                               // %.split539
                                        //   in Loop: Header=BB1_3 Depth=1
	ldur	x8, [x29, #-32]
	sub	x11, x29, #1288
	stur	x8, [x11, #-256]                // 8-byte Folded Spill
	b	.LBB1_75
.LBB1_75:                               // %.split539.split
                                        //   in Loop: Header=BB1_3 Depth=1
	sub	x8, x29, #1232
	ldur	w8, [x8, #-256]                 // 4-byte Folded Reload
	sub	x11, x29, #1288
	ldur	x11, [x11, #-256]               // 8-byte Folded Reload
	str	w8, [x11, #72]
	b	.LBB1_114
.Ltmp25:                                // Block address taken
.LBB1_76:                               //   in Loop: Header=BB1_3 Depth=1
	ldur	x11, [x29, #-80]                // 8-byte Folded Reload
	mov	x12, #1                         // =0x1
	lsl	x8, x12, #2
	add	x8, x8, #15
	and	x13, x8, #0xfffffffffffffff0
	mov	x8, sp
	subs	x8, x8, x13
	mov	sp, x8
	sub	x13, x29, #1352
	stur	x8, [x13, #-256]                // 8-byte Folded Spill
	str	wzr, [x8]
	lsl	x13, x12, #2
	add	x13, x13, #15
	and	x14, x13, #0xfffffffffffffff0
	mov	x13, sp
	subs	x13, x13, x14
	mov	sp, x13
	sub	x14, x29, #1344
	stur	x13, [x14, #-256]               // 8-byte Folded Spill
	str	wzr, [x13]
	lsl	x13, x12, #2
	add	x13, x13, #15
	and	x14, x13, #0xfffffffffffffff0
	mov	x13, sp
	subs	x13, x13, x14
	mov	sp, x13
	sub	x14, x29, #1336
	stur	x13, [x14, #-256]               // 8-byte Folded Spill
	str	wzr, [x13]
	lsl	x13, x12, #2
	add	x13, x13, #15
	and	x14, x13, #0xfffffffffffffff0
	mov	x13, sp
	subs	x13, x13, x14
	mov	sp, x13
	sub	x14, x29, #1328
	stur	x13, [x14, #-256]               // 8-byte Folded Spill
	str	wzr, [x13]
	lsl	x13, x12, #2
	add	x13, x13, #15
	and	x14, x13, #0xfffffffffffffff0
	mov	x13, sp
	subs	x13, x13, x14
	mov	sp, x13
	sub	x14, x29, #1320
	stur	x13, [x14, #-256]               // 8-byte Folded Spill
	str	wzr, [x13]
	lsl	x12, x12, #2
	add	x12, x12, #15
	and	x13, x12, #0xfffffffffffffff0
	mov	x12, sp
	subs	x12, x12, x13
	mov	sp, x12
	sub	x13, x29, #1312
	stur	x12, [x13, #-256]               // 8-byte Folded Spill
	str	wzr, [x8]
	ldur	x8, [x29, #-32]
	ldr	x8, [x8, #64]
	ldur	x12, [x29, #-32]
	ldr	w12, [x12, #72]
	add	w12, w12, #1
	ldr	w8, [x8, w12, sxtw #2]
	str	w8, [x11]
	ldur	x8, [x29, #-32]
	ldr	x8, [x8, #80]
	ldrsw	x11, [x11]
	add	x0, x8, x11
	adrp	x8, :got:stdin
	ldr	x8, [x8, :got_lo12:stdin]
	ldr	x2, [x8]
	mov	w1, #256                        // =0x100
	bl	fgets
	ldur	x8, [x29, #-32]
	sub	x11, x29, #1304
	stur	x8, [x11, #-256]                // 8-byte Folded Spill
	ldr	w8, [x8, #72]
	add	w8, w8, #2
	sub	x11, x29, #1292
	stur	w8, [x11, #-256]                // 4-byte Folded Spill
	b	.LBB1_517
.LBB1_77:                               // %.split562
                                        //   in Loop: Header=BB1_3 Depth=1
	b	.LBB1_78
.LBB1_78:                               // %.split562.split
                                        //   in Loop: Header=BB1_3 Depth=1
	sub	x8, x29, #1292
	ldur	w8, [x8, #-256]                 // 4-byte Folded Reload
	sub	x11, x29, #1304
	ldur	x11, [x11, #-256]               // 8-byte Folded Reload
	str	w8, [x11, #72]
	b	.LBB1_114
.Ltmp26:                                // Block address taken
.LBB1_79:                               //   in Loop: Header=BB1_3 Depth=1
	mov	x11, #1                         // =0x1
	lsl	x8, x11, #2
	add	x8, x8, #15
	and	x12, x8, #0xfffffffffffffff0
	mov	x8, sp
	subs	x8, x8, x12
	mov	sp, x8
	sub	x12, x29, #1408
	stur	x8, [x12, #-256]                // 8-byte Folded Spill
	str	wzr, [x8]
	lsl	x12, x11, #2
	add	x12, x12, #15
	and	x13, x12, #0xfffffffffffffff0
	mov	x12, sp
	subs	x12, x12, x13
	mov	sp, x12
	sub	x13, x29, #1400
	stur	x12, [x13, #-256]               // 8-byte Folded Spill
	str	wzr, [x12]
	lsl	x12, x11, #2
	add	x12, x12, #15
	and	x13, x12, #0xfffffffffffffff0
	mov	x12, sp
	subs	x12, x12, x13
	mov	sp, x12
	sub	x13, x29, #1392
	stur	x12, [x13, #-256]               // 8-byte Folded Spill
	str	wzr, [x12]
	lsl	x12, x11, #2
	add	x12, x12, #15
	and	x13, x12, #0xfffffffffffffff0
	mov	x12, sp
	subs	x12, x12, x13
	mov	sp, x12
	sub	x13, x29, #1384
	stur	x12, [x13, #-256]               // 8-byte Folded Spill
	str	wzr, [x12]
	lsl	x12, x11, #2
	add	x12, x12, #15
	and	x13, x12, #0xfffffffffffffff0
	mov	x12, sp
	subs	x12, x12, x13
	mov	sp, x12
	sub	x13, x29, #1376
	stur	x12, [x13, #-256]               // 8-byte Folded Spill
	str	wzr, [x12]
	lsl	x11, x11, #2
	add	x11, x11, #15
	and	x12, x11, #0xfffffffffffffff0
	mov	x11, sp
	subs	x11, x11, x12
	mov	sp, x11
	sub	x12, x29, #1368
	stur	x11, [x12, #-256]               // 8-byte Folded Spill
	str	wzr, [x8]
	ldur	x8, [x29, #-32]
	ldr	x8, [x8, #64]
	ldur	x11, [x29, #-32]
	ldr	w11, [x11, #72]
	add	w11, w11, #1
	ldr	w8, [x8, w11, sxtw #2]
	stur	w8, [x29, #-40]
	ldur	x8, [x29, #-32]
	ldr	x8, [x8, #64]
	ldur	x11, [x29, #-32]
	ldr	w11, [x11, #72]
	add	w11, w11, #2
	ldr	w8, [x8, w11, sxtw #2]
	stur	w8, [x29, #-44]
	ldur	x8, [x29, #-32]
	ldursw	x11, [x29, #-40]
	ldr	w8, [x8, x11, lsl #2]
	ldur	x11, [x29, #-32]
	ldursw	x12, [x29, #-44]
	ldr	w11, [x11, x12, lsl #2]
	subs	w8, w8, w11
	cset	w8, eq
	sub	x11, x29, #1356
	stur	w8, [x11, #-256]                // 4-byte Folded Spill
	b	.LBB1_533
.LBB1_80:                               // %.split585
                                        //   in Loop: Header=BB1_3 Depth=1
	sub	x8, x29, #1356
	ldur	w8, [x8, #-256]                 // 4-byte Folded Reload
	and	w8, w8, #0x1
	sub	x11, x29, #1412
	stur	w8, [x11, #-256]                // 4-byte Folded Spill
	b	.LBB1_81
.LBB1_81:                               // %.split585.split
                                        //   in Loop: Header=BB1_3 Depth=1
	sub	x8, x29, #1412
	ldur	w8, [x8, #-256]                 // 4-byte Folded Reload
	ldur	x11, [x29, #-32]
	str	w8, [x11, #76]
	ldur	x11, [x29, #-32]
	ldr	w8, [x11, #72]
	add	w8, w8, #3
	str	w8, [x11, #72]
	b	.LBB1_114
.Ltmp27:                                // Block address taken
.LBB1_82:                               //   in Loop: Header=BB1_3 Depth=1
	mov	x11, #1                         // =0x1
	lsl	x8, x11, #2
	add	x8, x8, #15
	and	x12, x8, #0xfffffffffffffff0
	mov	x8, sp
	subs	x8, x8, x12
	mov	sp, x8
	sub	x12, x29, #1464
	stur	x8, [x12, #-256]                // 8-byte Folded Spill
	str	wzr, [x8]
	lsl	x12, x11, #2
	add	x12, x12, #15
	and	x13, x12, #0xfffffffffffffff0
	mov	x12, sp
	subs	x12, x12, x13
	mov	sp, x12
	sub	x13, x29, #1456
	stur	x12, [x13, #-256]               // 8-byte Folded Spill
	str	wzr, [x12]
	lsl	x12, x11, #2
	add	x12, x12, #15
	and	x13, x12, #0xfffffffffffffff0
	mov	x12, sp
	subs	x12, x12, x13
	mov	sp, x12
	sub	x13, x29, #1448
	stur	x12, [x13, #-256]               // 8-byte Folded Spill
	str	wzr, [x12]
	lsl	x12, x11, #2
	add	x12, x12, #15
	and	x13, x12, #0xfffffffffffffff0
	mov	x12, sp
	subs	x12, x12, x13
	mov	sp, x12
	sub	x13, x29, #1440
	stur	x12, [x13, #-256]               // 8-byte Folded Spill
	str	wzr, [x12]
	lsl	x12, x11, #2
	add	x12, x12, #15
	and	x13, x12, #0xfffffffffffffff0
	mov	x12, sp
	subs	x12, x12, x13
	mov	sp, x12
	sub	x13, x29, #1432
	stur	x12, [x13, #-256]               // 8-byte Folded Spill
	str	wzr, [x12]
	lsl	x11, x11, #2
	add	x11, x11, #15
	and	x12, x11, #0xfffffffffffffff0
	mov	x11, sp
	subs	x11, x11, x12
	mov	sp, x11
	sub	x12, x29, #1424
	stur	x11, [x12, #-256]               // 8-byte Folded Spill
	str	wzr, [x8]
	b	.LBB1_549
.LBB1_83:                               // %.split608
                                        //   in Loop: Header=BB1_3 Depth=1
	mov	x8, #28                         // =0x1c
	movk	x8, #29, lsl #16
	movk	x8, #27, lsl #32
	movk	x8, #1, lsl #48
	//APP
	mov	x9, x8
	//NO_APP
	ldur	x8, [x29, #-32]
	ldr	w8, [x8, #76]
	subs	w8, w8, #0
	cset	w8, ne
	sub	x11, x29, #1468
	stur	w8, [x11, #-256]                // 4-byte Folded Spill
	b	.LBB1_84
.LBB1_84:                               // %.split608.split
                                        //   in Loop: Header=BB1_3 Depth=1
	sub	x8, x29, #1468
	ldur	w8, [x8, #-256]                 // 4-byte Folded Reload
	mov	w11, w8
	//APP
	mov	x10, x11

	//NO_APP
	//APP
	b	ConditionalJumpFunc_byX10
	//NO_APP
	tbnz	w8, #0, .LBB1_88
	b	.LBB1_85
.Ltmp28:                                // Block address taken
.LBB1_85:                               //   in Loop: Header=BB1_3 Depth=1
	mov	x11, #1                         // =0x1
	lsl	x8, x11, #2
	add	x8, x8, #15
	and	x12, x8, #0xfffffffffffffff0
	mov	x8, sp
	subs	x8, x8, x12
	mov	sp, x8
	sub	x12, x29, #1536
	stur	x8, [x12, #-256]                // 8-byte Folded Spill
	str	wzr, [x8]
	lsl	x12, x11, #2
	add	x12, x12, #15
	and	x13, x12, #0xfffffffffffffff0
	mov	x12, sp
	subs	x12, x12, x13
	mov	sp, x12
	sub	x13, x29, #1528
	stur	x12, [x13, #-256]               // 8-byte Folded Spill
	str	wzr, [x12]
	lsl	x12, x11, #2
	add	x12, x12, #15
	and	x13, x12, #0xfffffffffffffff0
	mov	x12, sp
	subs	x12, x12, x13
	mov	sp, x12
	sub	x13, x29, #1520
	stur	x12, [x13, #-256]               // 8-byte Folded Spill
	str	wzr, [x12]
	lsl	x12, x11, #2
	add	x12, x12, #15
	and	x13, x12, #0xfffffffffffffff0
	mov	x12, sp
	subs	x12, x12, x13
	mov	sp, x12
	sub	x13, x29, #1512
	stur	x12, [x13, #-256]               // 8-byte Folded Spill
	str	wzr, [x12]
	lsl	x12, x11, #2
	add	x12, x12, #15
	and	x13, x12, #0xfffffffffffffff0
	mov	x12, sp
	subs	x12, x12, x13
	mov	sp, x12
	sub	x13, x29, #1504
	stur	x12, [x13, #-256]               // 8-byte Folded Spill
	str	wzr, [x12]
	lsl	x11, x11, #2
	add	x11, x11, #15
	and	x12, x11, #0xfffffffffffffff0
	mov	x11, sp
	subs	x11, x11, x12
	mov	sp, x11
	sub	x12, x29, #1496
	stur	x11, [x12, #-256]               // 8-byte Folded Spill
	str	wzr, [x8]
	ldur	x8, [x29, #-32]
	ldr	x8, [x8, #64]
	sub	x11, x29, #1488
	stur	x8, [x11, #-256]                // 8-byte Folded Spill
	ldur	x8, [x29, #-32]
	sub	x11, x29, #1480
	stur	x8, [x11, #-256]                // 8-byte Folded Spill
	b	.LBB1_565
.LBB1_86:                               // %.split631
                                        //   in Loop: Header=BB1_3 Depth=1
	sub	x8, x29, #1488
	ldur	x8, [x8, #-256]                 // 8-byte Folded Reload
	sub	x11, x29, #1480
	ldur	x11, [x11, #-256]               // 8-byte Folded Reload
	ldr	w11, [x11, #72]
	add	w11, w11, #1
	ldr	w8, [x8, w11, sxtw #2]
	sub	x11, x29, #1540
	stur	w8, [x11, #-256]                // 4-byte Folded Spill
	b	.LBB1_87
.LBB1_87:                               // %.split631.split
                                        //   in Loop: Header=BB1_3 Depth=1
	sub	x8, x29, #1540
	ldur	w8, [x8, #-256]                 // 4-byte Folded Reload
	ldur	x11, [x29, #-32]
	str	w8, [x11, #72]
	b	.LBB1_91
.Ltmp29:                                // Block address taken
.LBB1_88:                               //   in Loop: Header=BB1_3 Depth=1
	mov	x11, #1                         // =0x1
	lsl	x8, x11, #2
	add	x8, x8, #15
	and	x12, x8, #0xfffffffffffffff0
	mov	x8, sp
	subs	x8, x8, x12
	mov	sp, x8
	sub	x12, x29, #1600
	stur	x8, [x12, #-256]                // 8-byte Folded Spill
	str	wzr, [x8]
	lsl	x12, x11, #2
	add	x12, x12, #15
	and	x13, x12, #0xfffffffffffffff0
	mov	x12, sp
	subs	x12, x12, x13
	mov	sp, x12
	sub	x13, x29, #1592
	stur	x12, [x13, #-256]               // 8-byte Folded Spill
	str	wzr, [x12]
	lsl	x12, x11, #2
	add	x12, x12, #15
	and	x13, x12, #0xfffffffffffffff0
	mov	x12, sp
	subs	x12, x12, x13
	mov	sp, x12
	sub	x13, x29, #1584
	stur	x12, [x13, #-256]               // 8-byte Folded Spill
	str	wzr, [x12]
	lsl	x12, x11, #2
	add	x12, x12, #15
	and	x13, x12, #0xfffffffffffffff0
	mov	x12, sp
	subs	x12, x12, x13
	mov	sp, x12
	sub	x13, x29, #1576
	stur	x12, [x13, #-256]               // 8-byte Folded Spill
	str	wzr, [x12]
	lsl	x12, x11, #2
	add	x12, x12, #15
	and	x13, x12, #0xfffffffffffffff0
	mov	x12, sp
	subs	x12, x12, x13
	mov	sp, x12
	sub	x13, x29, #1568
	stur	x12, [x13, #-256]               // 8-byte Folded Spill
	str	wzr, [x12]
	lsl	x11, x11, #2
	add	x11, x11, #15
	and	x12, x11, #0xfffffffffffffff0
	mov	x11, sp
	subs	x11, x11, x12
	mov	sp, x11
	sub	x12, x29, #1560
	stur	x11, [x12, #-256]               // 8-byte Folded Spill
	str	wzr, [x8]
	ldur	x8, [x29, #-32]
	sub	x11, x29, #1552
	stur	x8, [x11, #-256]                // 8-byte Folded Spill
	b	.LBB1_581
.LBB1_89:                               // %.split654
                                        //   in Loop: Header=BB1_3 Depth=1
	b	.LBB1_90
.LBB1_90:                               // %.split654.split
                                        //   in Loop: Header=BB1_3 Depth=1
	sub	x8, x29, #1552
	ldur	x11, [x8, #-256]                // 8-byte Folded Reload
	ldr	w8, [x11, #72]
	add	w8, w8, #2
	str	w8, [x11, #72]
	b	.LBB1_91
.Ltmp30:                                // Block address taken
.LBB1_91:                               //   in Loop: Header=BB1_3 Depth=1
	b	.LBB1_114
.Ltmp31:                                // Block address taken
.LBB1_92:                               //   in Loop: Header=BB1_3 Depth=1
	mov	x11, #1                         // =0x1
	lsl	x8, x11, #2
	add	x8, x8, #15
	and	x12, x8, #0xfffffffffffffff0
	mov	x8, sp
	subs	x8, x8, x12
	mov	sp, x8
	sub	x12, x29, #1648
	stur	x8, [x12, #-256]                // 8-byte Folded Spill
	str	wzr, [x8]
	lsl	x12, x11, #2
	add	x12, x12, #15
	and	x13, x12, #0xfffffffffffffff0
	mov	x12, sp
	subs	x12, x12, x13
	mov	sp, x12
	sub	x13, x29, #1640
	stur	x12, [x13, #-256]               // 8-byte Folded Spill
	str	wzr, [x12]
	lsl	x12, x11, #2
	add	x12, x12, #15
	and	x13, x12, #0xfffffffffffffff0
	mov	x12, sp
	subs	x12, x12, x13
	mov	sp, x12
	sub	x13, x29, #1632
	stur	x12, [x13, #-256]               // 8-byte Folded Spill
	str	wzr, [x12]
	lsl	x12, x11, #2
	add	x12, x12, #15
	and	x13, x12, #0xfffffffffffffff0
	mov	x12, sp
	subs	x12, x12, x13
	mov	sp, x12
	sub	x13, x29, #1624
	stur	x12, [x13, #-256]               // 8-byte Folded Spill
	str	wzr, [x12]
	lsl	x12, x11, #2
	add	x12, x12, #15
	and	x13, x12, #0xfffffffffffffff0
	mov	x12, sp
	subs	x12, x12, x13
	mov	sp, x12
	sub	x13, x29, #1616
	stur	x12, [x13, #-256]               // 8-byte Folded Spill
	str	wzr, [x12]
	lsl	x11, x11, #2
	add	x11, x11, #15
	and	x12, x11, #0xfffffffffffffff0
	mov	x11, sp
	subs	x11, x11, x12
	mov	sp, x11
	sub	x12, x29, #1608
	stur	x11, [x12, #-256]               // 8-byte Folded Spill
	str	wzr, [x8]
	ldur	x8, [x29, #-32]
	ldr	x8, [x8, #64]
	ldur	x11, [x29, #-32]
	ldr	w11, [x11, #72]
	add	w11, w11, #1
	ldr	w8, [x8, w11, sxtw #2]
	stur	w8, [x29, #-40]
	ldur	x8, [x29, #-32]
	ldr	x8, [x8, #64]
	ldur	x11, [x29, #-32]
	ldr	w11, [x11, #72]
	add	w11, w11, #2
	ldr	w8, [x8, w11, sxtw #2]
	stur	w8, [x29, #-44]
	b	.LBB1_597
.LBB1_93:                               // %.split677
                                        //   in Loop: Header=BB1_3 Depth=1
	ldur	x8, [x29, #-32]
	sub	x11, x29, #1664
	stur	x8, [x11, #-256]                // 8-byte Folded Spill
	ldursw	x8, [x29, #-44]
	sub	x11, x29, #1656
	stur	x8, [x11, #-256]                // 8-byte Folded Spill
	b	.LBB1_94
.LBB1_94:                               // %.split677.split
                                        //   in Loop: Header=BB1_3 Depth=1
	ldur	x11, [x29, #-80]                // 8-byte Folded Reload
	sub	x8, x29, #1664
	ldur	x8, [x8, #-256]                 // 8-byte Folded Reload
	sub	x12, x29, #1656
	ldur	x12, [x12, #-256]               // 8-byte Folded Reload
	ldr	w8, [x8, x12, lsl #2]
	str	w8, [x11]
	ldur	x8, [x29, #-32]
	ldr	x8, [x8, #80]
	ldrsw	x11, [x11]
	ldrb	w8, [x8, x11]
	ldur	x11, [x29, #-32]
	ldursw	x12, [x29, #-40]
	str	w8, [x11, x12, lsl #2]
	ldur	x11, [x29, #-32]
	ldr	w8, [x11, #72]
	add	w8, w8, #3
	str	w8, [x11, #72]
	b	.LBB1_114
.Ltmp32:                                // Block address taken
.LBB1_95:                               //   in Loop: Header=BB1_3 Depth=1
	mov	x8, #34                         // =0x22
	movk	x8, #33, lsl #16
	movk	x8, #32, lsl #32
	movk	x8, #1, lsl #48
	//APP
	mov	x9, x8
	//NO_APP
	ldur	x8, [x29, #-32]
	ldr	x8, [x8, #64]
	sub	x11, x29, #1680
	stur	x8, [x11, #-256]                // 8-byte Folded Spill
	ldur	x8, [x29, #-32]
	sub	x11, x29, #1672
	stur	x8, [x11, #-256]                // 8-byte Folded Spill
	b	.LBB1_96
.LBB1_96:                               // %.split700
                                        //   in Loop: Header=BB1_3 Depth=1
	mov	x11, #1                         // =0x1
	lsl	x8, x11, #2
	add	x8, x8, #15
	and	x12, x8, #0xfffffffffffffff0
	mov	x8, sp
	subs	x8, x8, x12
	mov	sp, x8
	sub	x12, x29, #1728
	stur	x8, [x12, #-256]                // 8-byte Folded Spill
	str	wzr, [x8]
	lsl	x12, x11, #2
	add	x12, x12, #15
	and	x13, x12, #0xfffffffffffffff0
	mov	x12, sp
	subs	x12, x12, x13
	mov	sp, x12
	sub	x13, x29, #1720
	stur	x12, [x13, #-256]               // 8-byte Folded Spill
	str	wzr, [x12]
	lsl	x12, x11, #2
	add	x12, x12, #15
	and	x13, x12, #0xfffffffffffffff0
	mov	x12, sp
	subs	x12, x12, x13
	mov	sp, x12
	sub	x13, x29, #1712
	stur	x12, [x13, #-256]               // 8-byte Folded Spill
	str	wzr, [x12]
	lsl	x12, x11, #2
	add	x12, x12, #15
	and	x13, x12, #0xfffffffffffffff0
	mov	x12, sp
	subs	x12, x12, x13
	mov	sp, x12
	sub	x13, x29, #1704
	stur	x12, [x13, #-256]               // 8-byte Folded Spill
	str	wzr, [x12]
	lsl	x12, x11, #2
	add	x12, x12, #15
	and	x13, x12, #0xfffffffffffffff0
	mov	x12, sp
	subs	x12, x12, x13
	mov	sp, x12
	sub	x13, x29, #1696
	stur	x12, [x13, #-256]               // 8-byte Folded Spill
	str	wzr, [x12]
	lsl	x11, x11, #2
	add	x11, x11, #15
	and	x12, x11, #0xfffffffffffffff0
	mov	x11, sp
	subs	x11, x11, x12
	mov	sp, x11
	sub	x12, x29, #1688
	stur	x11, [x12, #-256]               // 8-byte Folded Spill
	str	wzr, [x8]
	b	.LBB1_613
.LBB1_97:                               // %.split700.split701
                                        //   in Loop: Header=BB1_3 Depth=1
	b	.LBB1_98
.LBB1_98:                               // %.split700.split701.split
                                        //   in Loop: Header=BB1_3 Depth=1
	sub	x8, x29, #1672
	ldur	x8, [x8, #-256]                 // 8-byte Folded Reload
	ldr	w8, [x8, #72]
	sub	x11, x29, #1732
	stur	w8, [x11, #-256]                // 4-byte Folded Spill
	b	.LBB1_99
.LBB1_99:                               // %.split700.split
                                        //   in Loop: Header=BB1_3 Depth=1
	mov	x11, #1                         // =0x1
	lsl	x8, x11, #2
	add	x8, x8, #15
	and	x12, x8, #0xfffffffffffffff0
	mov	x8, sp
	subs	x8, x8, x12
	mov	sp, x8
	sub	x12, x29, #1784
	stur	x8, [x12, #-256]                // 8-byte Folded Spill
	str	wzr, [x8]
	lsl	x12, x11, #2
	add	x12, x12, #15
	and	x13, x12, #0xfffffffffffffff0
	mov	x12, sp
	subs	x12, x12, x13
	mov	sp, x12
	sub	x13, x29, #1776
	stur	x12, [x13, #-256]               // 8-byte Folded Spill
	str	wzr, [x12]
	lsl	x12, x11, #2
	add	x12, x12, #15
	and	x13, x12, #0xfffffffffffffff0
	mov	x12, sp
	subs	x12, x12, x13
	mov	sp, x12
	sub	x13, x29, #1768
	stur	x12, [x13, #-256]               // 8-byte Folded Spill
	str	wzr, [x12]
	lsl	x12, x11, #2
	add	x12, x12, #15
	and	x13, x12, #0xfffffffffffffff0
	mov	x12, sp
	subs	x12, x12, x13
	mov	sp, x12
	sub	x13, x29, #1760
	stur	x12, [x13, #-256]               // 8-byte Folded Spill
	str	wzr, [x12]
	lsl	x12, x11, #2
	add	x12, x12, #15
	and	x13, x12, #0xfffffffffffffff0
	mov	x12, sp
	subs	x12, x12, x13
	mov	sp, x12
	sub	x13, x29, #1752
	stur	x12, [x13, #-256]               // 8-byte Folded Spill
	str	wzr, [x12]
	lsl	x11, x11, #2
	add	x11, x11, #15
	and	x12, x11, #0xfffffffffffffff0
	mov	x11, sp
	subs	x11, x11, x12
	mov	sp, x11
	sub	x12, x29, #1744
	stur	x11, [x12, #-256]               // 8-byte Folded Spill
	str	wzr, [x8]
	b	.LBB1_629
.LBB1_100:                              // %.split700.split.split
                                        //   in Loop: Header=BB1_3 Depth=1
	sub	x8, x29, #1732
	ldur	w8, [x8, #-256]                 // 4-byte Folded Reload
	add	w8, w8, #1
	sub	x11, x29, #1788
	stur	w8, [x11, #-256]                // 4-byte Folded Spill
	b	.LBB1_101
.LBB1_101:                              // %.split700.split.split.split
                                        //   in Loop: Header=BB1_3 Depth=1
	sub	x8, x29, #1680
	ldur	x8, [x8, #-256]                 // 8-byte Folded Reload
	sub	x11, x29, #1788
	ldur	w11, [x11, #-256]               // 4-byte Folded Reload
	ldr	w8, [x8, w11, sxtw #2]
	subs	w8, w8, #0
	cset	w8, ne
	mov	w11, w8
	//APP
	mov	x10, x11

	//NO_APP
	//APP
	b	ConditionalJumpFunc_byX10
	//NO_APP
	tbz	w8, #0, .LBB1_105
	b	.LBB1_102
.Ltmp33:                                // Block address taken
.LBB1_102:                              //   in Loop: Header=BB1_3 Depth=1
	mov	x11, #1                         // =0x1
	lsl	x8, x11, #2
	add	x8, x8, #15
	and	x12, x8, #0xfffffffffffffff0
	mov	x8, sp
	subs	x8, x8, x12
	mov	sp, x8
	sub	x12, x29, #1840
	stur	x8, [x12, #-256]                // 8-byte Folded Spill
	str	wzr, [x8]
	lsl	x12, x11, #2
	add	x12, x12, #15
	and	x13, x12, #0xfffffffffffffff0
	mov	x12, sp
	subs	x12, x12, x13
	mov	sp, x12
	sub	x13, x29, #1832
	stur	x12, [x13, #-256]               // 8-byte Folded Spill
	str	wzr, [x12]
	lsl	x12, x11, #2
	add	x12, x12, #15
	and	x13, x12, #0xfffffffffffffff0
	mov	x12, sp
	subs	x12, x12, x13
	mov	sp, x12
	sub	x13, x29, #1824
	stur	x12, [x13, #-256]               // 8-byte Folded Spill
	str	wzr, [x12]
	lsl	x12, x11, #2
	add	x12, x12, #15
	and	x13, x12, #0xfffffffffffffff0
	mov	x12, sp
	subs	x12, x12, x13
	mov	sp, x12
	sub	x13, x29, #1816
	stur	x12, [x13, #-256]               // 8-byte Folded Spill
	str	wzr, [x12]
	lsl	x12, x11, #2
	add	x12, x12, #15
	and	x13, x12, #0xfffffffffffffff0
	mov	x12, sp
	subs	x12, x12, x13
	mov	sp, x12
	sub	x13, x29, #1808
	stur	x12, [x13, #-256]               // 8-byte Folded Spill
	str	wzr, [x12]
	lsl	x11, x11, #2
	add	x11, x11, #15
	and	x12, x11, #0xfffffffffffffff0
	mov	x11, sp
	subs	x11, x11, x12
	mov	sp, x11
	sub	x12, x29, #1800
	stur	x11, [x12, #-256]               // 8-byte Folded Spill
	str	wzr, [x8]
	b	.LBB1_645
.LBB1_103:                              // %.split746
                                        //   in Loop: Header=BB1_3 Depth=1
	b	.LBB1_104
.LBB1_104:                              // %.split746.split
                                        //   in Loop: Header=BB1_3 Depth=1
	adrp	x0, .L.str
	add	x0, x0, :lo12:.L.str
	bl	printf
	b	.LBB1_108
.Ltmp34:                                // Block address taken
.LBB1_105:                              //   in Loop: Header=BB1_3 Depth=1
	mov	x11, #1                         // =0x1
	lsl	x8, x11, #2
	add	x8, x8, #15
	and	x12, x8, #0xfffffffffffffff0
	mov	x8, sp
	subs	x8, x8, x12
	mov	sp, x8
	sub	x12, x29, #1888
	stur	x8, [x12, #-256]                // 8-byte Folded Spill
	str	wzr, [x8]
	lsl	x12, x11, #2
	add	x12, x12, #15
	and	x13, x12, #0xfffffffffffffff0
	mov	x12, sp
	subs	x12, x12, x13
	mov	sp, x12
	sub	x13, x29, #1880
	stur	x12, [x13, #-256]               // 8-byte Folded Spill
	str	wzr, [x12]
	lsl	x12, x11, #2
	add	x12, x12, #15
	and	x13, x12, #0xfffffffffffffff0
	mov	x12, sp
	subs	x12, x12, x13
	mov	sp, x12
	sub	x13, x29, #1872
	stur	x12, [x13, #-256]               // 8-byte Folded Spill
	str	wzr, [x12]
	lsl	x12, x11, #2
	add	x12, x12, #15
	and	x13, x12, #0xfffffffffffffff0
	mov	x12, sp
	subs	x12, x12, x13
	mov	sp, x12
	sub	x13, x29, #1864
	stur	x12, [x13, #-256]               // 8-byte Folded Spill
	str	wzr, [x12]
	lsl	x12, x11, #2
	add	x12, x12, #15
	and	x13, x12, #0xfffffffffffffff0
	mov	x12, sp
	subs	x12, x12, x13
	mov	sp, x12
	sub	x13, x29, #1856
	stur	x12, [x13, #-256]               // 8-byte Folded Spill
	str	wzr, [x12]
	lsl	x11, x11, #2
	add	x11, x11, #15
	and	x12, x11, #0xfffffffffffffff0
	mov	x11, sp
	subs	x11, x11, x12
	mov	sp, x11
	sub	x12, x29, #1848
	stur	x11, [x12, #-256]               // 8-byte Folded Spill
	str	wzr, [x8]
	b	.LBB1_661
.LBB1_106:                              // %.split769
                                        //   in Loop: Header=BB1_3 Depth=1
	b	.LBB1_107
.LBB1_107:                              // %.split769.split
                                        //   in Loop: Header=BB1_3 Depth=1
	adrp	x0, .L.str.1
	add	x0, x0, :lo12:.L.str.1
	bl	printf
	b	.LBB1_108
.Ltmp35:                                // Block address taken
.LBB1_108:                              //   in Loop: Header=BB1_3 Depth=1
	mov	x11, #1                         // =0x1
	lsl	x8, x11, #2
	add	x8, x8, #15
	and	x12, x8, #0xfffffffffffffff0
	mov	x8, sp
	subs	x8, x8, x12
	mov	sp, x8
	sub	x12, x29, #1944
	stur	x8, [x12, #-256]                // 8-byte Folded Spill
	str	wzr, [x8]
	lsl	x12, x11, #2
	add	x12, x12, #15
	and	x13, x12, #0xfffffffffffffff0
	mov	x12, sp
	subs	x12, x12, x13
	mov	sp, x12
	sub	x13, x29, #1936
	stur	x12, [x13, #-256]               // 8-byte Folded Spill
	str	wzr, [x12]
	lsl	x12, x11, #2
	add	x12, x12, #15
	and	x13, x12, #0xfffffffffffffff0
	mov	x12, sp
	subs	x12, x12, x13
	mov	sp, x12
	sub	x13, x29, #1928
	stur	x12, [x13, #-256]               // 8-byte Folded Spill
	str	wzr, [x12]
	lsl	x12, x11, #2
	add	x12, x12, #15
	and	x13, x12, #0xfffffffffffffff0
	mov	x12, sp
	subs	x12, x12, x13
	mov	sp, x12
	sub	x13, x29, #1920
	stur	x12, [x13, #-256]               // 8-byte Folded Spill
	str	wzr, [x12]
	lsl	x12, x11, #2
	add	x12, x12, #15
	and	x13, x12, #0xfffffffffffffff0
	mov	x12, sp
	subs	x12, x12, x13
	mov	sp, x12
	sub	x13, x29, #1912
	stur	x12, [x13, #-256]               // 8-byte Folded Spill
	str	wzr, [x12]
	lsl	x11, x11, #2
	add	x11, x11, #15
	and	x12, x11, #0xfffffffffffffff0
	mov	x11, sp
	subs	x11, x11, x12
	mov	sp, x11
	sub	x12, x29, #1904
	stur	x11, [x12, #-256]               // 8-byte Folded Spill
	str	wzr, [x8]
	ldur	x8, [x29, #-32]
	sub	x11, x29, #1896
	stur	x8, [x11, #-256]                // 8-byte Folded Spill
	b	.LBB1_677
.LBB1_109:                              // %.split792
                                        //   in Loop: Header=BB1_3 Depth=1
	sub	x8, x29, #1896
	ldur	x8, [x8, #-256]                 // 8-byte Folded Reload
	ldr	w8, [x8, #72]
	add	w8, w8, #1
	sub	x11, x29, #1948
	stur	w8, [x11, #-256]                // 4-byte Folded Spill
	b	.LBB1_110
.LBB1_110:                              // %.split792.split
                                        //   in Loop: Header=BB1_3 Depth=1
	sub	x8, x29, #1948
	ldur	w8, [x8, #-256]                 // 4-byte Folded Reload
	sub	x11, x29, #1896
	ldur	x11, [x11, #-256]               // 8-byte Folded Reload
	str	w8, [x11, #72]
	b	.LBB1_114
.Ltmp36:                                // Block address taken
.LBB1_111:
	mov	x11, #1                         // =0x1
	lsl	x8, x11, #2
	add	x8, x8, #15
	and	x12, x8, #0xfffffffffffffff0
	mov	x8, sp
	subs	x8, x8, x12
	mov	sp, x8
	sub	x12, x29, #2000
	stur	x8, [x12, #-256]                // 8-byte Folded Spill
	str	wzr, [x8]
	lsl	x12, x11, #2
	add	x12, x12, #15
	and	x13, x12, #0xfffffffffffffff0
	mov	x12, sp
	subs	x12, x12, x13
	mov	sp, x12
	sub	x13, x29, #1992
	stur	x12, [x13, #-256]               // 8-byte Folded Spill
	str	wzr, [x12]
	lsl	x12, x11, #2
	add	x12, x12, #15
	and	x13, x12, #0xfffffffffffffff0
	mov	x12, sp
	subs	x12, x12, x13
	mov	sp, x12
	sub	x13, x29, #1984
	stur	x12, [x13, #-256]               // 8-byte Folded Spill
	str	wzr, [x12]
	lsl	x12, x11, #2
	add	x12, x12, #15
	and	x13, x12, #0xfffffffffffffff0
	mov	x12, sp
	subs	x12, x12, x13
	mov	sp, x12
	sub	x13, x29, #1976
	stur	x12, [x13, #-256]               // 8-byte Folded Spill
	str	wzr, [x12]
	lsl	x12, x11, #2
	add	x12, x12, #15
	and	x13, x12, #0xfffffffffffffff0
	mov	x12, sp
	subs	x12, x12, x13
	mov	sp, x12
	sub	x13, x29, #1968
	stur	x12, [x13, #-256]               // 8-byte Folded Spill
	str	wzr, [x12]
	lsl	x11, x11, #2
	add	x11, x11, #15
	and	x12, x11, #0xfffffffffffffff0
	mov	x11, sp
	subs	x11, x11, x12
	mov	sp, x11
	sub	x12, x29, #1960
	stur	x11, [x12, #-256]               // 8-byte Folded Spill
	str	wzr, [x8]
	ldur	w8, [x29, #-36]
	sub	x11, x29, #1952
	stur	w8, [x11, #-256]                // 4-byte Folded Spill
	b	.LBB1_693
.LBB1_112:                              // %.split815
	b	.LBB1_113
.LBB1_113:                              // %.split815.split
	sub	x8, x29, #1952
	ldur	w1, [x8, #-256]                 // 4-byte Folded Reload
	adrp	x0, .L.str.2
	add	x0, x0, :lo12:.L.str.2
	bl	printf
	mov	w0, #1                          // =0x1
	bl	exit
.Ltmp37:                                // Block address taken
.LBB1_114:                              //   in Loop: Header=BB1_3 Depth=1
	b	.LBB1_3
.Ltmp38:                                // Block address taken
.LBB1_115:
	mov	sp, x29
	.cfi_def_cfa wsp, 32
	ldr	x28, [sp, #16]                  // 8-byte Folded Reload
	ldp	x29, x30, [sp], #32             // 16-byte Folded Reload
	.cfi_def_cfa_offset 0
	.cfi_restore w28
	.cfi_restore w30
	.cfi_restore w29
	ret
.LBB1_116:                              // %excute.cond
	.cfi_restore_state
	ldur	w8, [x29, #-24]
	add	w8, w8, #1
	stur	w8, [x29, #-24]
	b	.LBB1_1
.LBB1_117:                              // %outer.loop.cond
                                        // =>This Loop Header: Depth=1
                                        //     Child Loop BB1_120 Depth 2
                                        //       Child Loop BB1_123 Depth 3
                                        //         Child Loop BB1_126 Depth 4
                                        //           Child Loop BB1_129 Depth 5
	ldur	w8, [x29, #-4]
	sub	x11, x29, #2004
	stur	w8, [x11, #-256]                // 4-byte Folded Spill
	subs	w8, w8, #10
	cset	w8, ge
	tbnz	w8, #0, .LBB1_119
	b	.LBB1_118
.LBB1_118:                              // %outer.loop.body
                                        //   in Loop: Header=BB1_117 Depth=1
	sub	x8, x29, #2004
	ldur	w8, [x8, #-256]                 // 4-byte Folded Reload
	add	w8, w8, #1
	stur	w8, [x29, #-4]
	b	.LBB1_120
.LBB1_119:                              // %outer.loop.end
	b	.LBB1_1
.LBB1_120:                              // %inner.loop.cond
                                        //   Parent Loop BB1_117 Depth=1
                                        // =>  This Loop Header: Depth=2
                                        //       Child Loop BB1_123 Depth 3
                                        //         Child Loop BB1_126 Depth 4
                                        //           Child Loop BB1_129 Depth 5
	ldur	w8, [x29, #-8]
	sub	x11, x29, #2008
	stur	w8, [x11, #-256]                // 4-byte Folded Spill
	subs	w8, w8, #5
	cset	w8, ge
	tbnz	w8, #0, .LBB1_122
	b	.LBB1_121
.LBB1_121:                              // %inner.loop.body
                                        //   in Loop: Header=BB1_120 Depth=2
	sub	x8, x29, #2008
	ldur	w8, [x8, #-256]                 // 4-byte Folded Reload
	add	w8, w8, #1
	stur	w8, [x29, #-8]
	b	.LBB1_123
.LBB1_122:                              // %inner.loop.end
                                        //   in Loop: Header=BB1_117 Depth=1
	b	.LBB1_117
.LBB1_123:                              // %inner.loop.cond1
                                        //   Parent Loop BB1_117 Depth=1
                                        //     Parent Loop BB1_120 Depth=2
                                        // =>    This Loop Header: Depth=3
                                        //         Child Loop BB1_126 Depth 4
                                        //           Child Loop BB1_129 Depth 5
	ldur	w8, [x29, #-12]
	sub	x11, x29, #2012
	stur	w8, [x11, #-256]                // 4-byte Folded Spill
	subs	w8, w8, #5
	cset	w8, ge
	tbnz	w8, #0, .LBB1_125
	b	.LBB1_124
.LBB1_124:                              // %inner.loop.body2
                                        //   in Loop: Header=BB1_123 Depth=3
	sub	x8, x29, #2012
	ldur	w8, [x8, #-256]                 // 4-byte Folded Reload
	add	w8, w8, #1
	stur	w8, [x29, #-12]
	b	.LBB1_126
.LBB1_125:                              // %inner.loop.end3
                                        //   in Loop: Header=BB1_120 Depth=2
	b	.LBB1_120
.LBB1_126:                              // %inner.loop.cond4
                                        //   Parent Loop BB1_117 Depth=1
                                        //     Parent Loop BB1_120 Depth=2
                                        //       Parent Loop BB1_123 Depth=3
                                        // =>      This Loop Header: Depth=4
                                        //           Child Loop BB1_129 Depth 5
	ldur	w8, [x29, #-16]
	sub	x11, x29, #2016
	stur	w8, [x11, #-256]                // 4-byte Folded Spill
	subs	w8, w8, #5
	cset	w8, ge
	tbnz	w8, #0, .LBB1_128
	b	.LBB1_127
.LBB1_127:                              // %inner.loop.body5
                                        //   in Loop: Header=BB1_126 Depth=4
	sub	x8, x29, #2016
	ldur	w8, [x8, #-256]                 // 4-byte Folded Reload
	add	w8, w8, #1
	stur	w8, [x29, #-16]
	b	.LBB1_129
.LBB1_128:                              // %inner.loop.end6
                                        //   in Loop: Header=BB1_123 Depth=3
	b	.LBB1_123
.LBB1_129:                              // %inner.loop.cond7
                                        //   Parent Loop BB1_117 Depth=1
                                        //     Parent Loop BB1_120 Depth=2
                                        //       Parent Loop BB1_123 Depth=3
                                        //         Parent Loop BB1_126 Depth=4
                                        // =>        This Inner Loop Header: Depth=5
	ldur	w8, [x29, #-20]
	sub	x11, x29, #2020
	stur	w8, [x11, #-256]                // 4-byte Folded Spill
	subs	w8, w8, #5
	cset	w8, ge
	tbnz	w8, #0, .LBB1_131
	b	.LBB1_130
.LBB1_130:                              // %inner.loop.body8
                                        //   in Loop: Header=BB1_129 Depth=5
	sub	x8, x29, #2020
	ldur	w8, [x8, #-256]                 // 4-byte Folded Reload
	add	w8, w8, #1
	stur	w8, [x29, #-20]
	ldur	w8, [x29, #-24]
	subs	w8, w8, #0
	cset	w8, gt
	tbnz	w8, #0, .LBB1_129
	b	.LBB1_116
.LBB1_131:                              // %inner.loop.end9
                                        //   in Loop: Header=BB1_126 Depth=4
	b	.LBB1_126
.LBB1_132:                              // %excute.cond17
                                        //   in Loop: Header=BB1_3 Depth=1
	ldur	x11, [x29, #-96]                // 8-byte Folded Reload
	ldr	w8, [x11]
	add	w8, w8, #1
	str	w8, [x11]
	b	.LBB1_4
.LBB1_133:                              // %outer.loop.cond18
                                        //   Parent Loop BB1_3 Depth=1
                                        // =>  This Loop Header: Depth=2
                                        //       Child Loop BB1_136 Depth 3
                                        //         Child Loop BB1_139 Depth 4
                                        //           Child Loop BB1_142 Depth 5
                                        //             Child Loop BB1_145 Depth 6
	ldur	x8, [x29, #-136]                // 8-byte Folded Reload
	ldr	w8, [x8]
	sub	x11, x29, #2024
	stur	w8, [x11, #-256]                // 4-byte Folded Spill
	subs	w8, w8, #10
	cset	w8, ge
	tbnz	w8, #0, .LBB1_135
	b	.LBB1_134
.LBB1_134:                              // %outer.loop.body19
                                        //   in Loop: Header=BB1_133 Depth=2
	ldur	x11, [x29, #-136]               // 8-byte Folded Reload
	sub	x8, x29, #2024
	ldur	w8, [x8, #-256]                 // 4-byte Folded Reload
	add	w8, w8, #1
	str	w8, [x11]
	b	.LBB1_136
.LBB1_135:                              // %outer.loop.end20
                                        //   in Loop: Header=BB1_3 Depth=1
	b	.LBB1_4
.LBB1_136:                              // %inner.loop.cond21
                                        //   Parent Loop BB1_3 Depth=1
                                        //     Parent Loop BB1_133 Depth=2
                                        // =>    This Loop Header: Depth=3
                                        //         Child Loop BB1_139 Depth 4
                                        //           Child Loop BB1_142 Depth 5
                                        //             Child Loop BB1_145 Depth 6
	ldur	x8, [x29, #-128]                // 8-byte Folded Reload
	ldr	w8, [x8]
	sub	x11, x29, #2028
	stur	w8, [x11, #-256]                // 4-byte Folded Spill
	subs	w8, w8, #5
	cset	w8, ge
	tbnz	w8, #0, .LBB1_138
	b	.LBB1_137
.LBB1_137:                              // %inner.loop.body22
                                        //   in Loop: Header=BB1_136 Depth=3
	ldur	x11, [x29, #-128]               // 8-byte Folded Reload
	sub	x8, x29, #2028
	ldur	w8, [x8, #-256]                 // 4-byte Folded Reload
	add	w8, w8, #1
	str	w8, [x11]
	b	.LBB1_139
.LBB1_138:                              // %inner.loop.end23
                                        //   in Loop: Header=BB1_133 Depth=2
	b	.LBB1_133
.LBB1_139:                              // %inner.loop.cond24
                                        //   Parent Loop BB1_3 Depth=1
                                        //     Parent Loop BB1_133 Depth=2
                                        //       Parent Loop BB1_136 Depth=3
                                        // =>      This Loop Header: Depth=4
                                        //           Child Loop BB1_142 Depth 5
                                        //             Child Loop BB1_145 Depth 6
	ldur	x8, [x29, #-120]                // 8-byte Folded Reload
	ldr	w8, [x8]
	sub	x11, x29, #2032
	stur	w8, [x11, #-256]                // 4-byte Folded Spill
	subs	w8, w8, #5
	cset	w8, ge
	tbnz	w8, #0, .LBB1_141
	b	.LBB1_140
.LBB1_140:                              // %inner.loop.body25
                                        //   in Loop: Header=BB1_139 Depth=4
	ldur	x11, [x29, #-120]               // 8-byte Folded Reload
	sub	x8, x29, #2032
	ldur	w8, [x8, #-256]                 // 4-byte Folded Reload
	add	w8, w8, #1
	str	w8, [x11]
	b	.LBB1_142
.LBB1_141:                              // %inner.loop.end26
                                        //   in Loop: Header=BB1_136 Depth=3
	b	.LBB1_136
.LBB1_142:                              // %inner.loop.cond27
                                        //   Parent Loop BB1_3 Depth=1
                                        //     Parent Loop BB1_133 Depth=2
                                        //       Parent Loop BB1_136 Depth=3
                                        //         Parent Loop BB1_139 Depth=4
                                        // =>        This Loop Header: Depth=5
                                        //             Child Loop BB1_145 Depth 6
	ldur	x8, [x29, #-112]                // 8-byte Folded Reload
	ldr	w8, [x8]
	sub	x11, x29, #2036
	stur	w8, [x11, #-256]                // 4-byte Folded Spill
	subs	w8, w8, #5
	cset	w8, ge
	tbnz	w8, #0, .LBB1_144
	b	.LBB1_143
.LBB1_143:                              // %inner.loop.body28
                                        //   in Loop: Header=BB1_142 Depth=5
	ldur	x11, [x29, #-112]               // 8-byte Folded Reload
	sub	x8, x29, #2036
	ldur	w8, [x8, #-256]                 // 4-byte Folded Reload
	add	w8, w8, #1
	str	w8, [x11]
	b	.LBB1_145
.LBB1_144:                              // %inner.loop.end29
                                        //   in Loop: Header=BB1_139 Depth=4
	b	.LBB1_139
.LBB1_145:                              // %inner.loop.cond30
                                        //   Parent Loop BB1_3 Depth=1
                                        //     Parent Loop BB1_133 Depth=2
                                        //       Parent Loop BB1_136 Depth=3
                                        //         Parent Loop BB1_139 Depth=4
                                        //           Parent Loop BB1_142 Depth=5
                                        // =>          This Inner Loop Header: Depth=6
	ldur	x8, [x29, #-104]                // 8-byte Folded Reload
	ldr	w8, [x8]
	sub	x11, x29, #2040
	stur	w8, [x11, #-256]                // 4-byte Folded Spill
	subs	w8, w8, #5
	cset	w8, ge
	tbnz	w8, #0, .LBB1_147
	b	.LBB1_146
.LBB1_146:                              // %inner.loop.body31
                                        //   in Loop: Header=BB1_145 Depth=6
	ldur	x8, [x29, #-96]                 // 8-byte Folded Reload
	ldur	x12, [x29, #-104]               // 8-byte Folded Reload
	sub	x11, x29, #2040
	ldur	w11, [x11, #-256]               // 4-byte Folded Reload
	add	w11, w11, #1
	str	w11, [x12]
	ldr	w8, [x8]
	subs	w8, w8, #0
	cset	w8, gt
	tbnz	w8, #0, .LBB1_145
	b	.LBB1_132
.LBB1_147:                              // %inner.loop.end32
                                        //   in Loop: Header=BB1_142 Depth=5
	b	.LBB1_142
.LBB1_148:                              // %excute.cond40
                                        //   in Loop: Header=BB1_3 Depth=1
	ldur	x11, [x29, #-168]               // 8-byte Folded Reload
	ldr	w8, [x11]
	add	w8, w8, #1
	str	w8, [x11]
	b	.LBB1_7
.LBB1_149:                              // %outer.loop.cond41
                                        //   Parent Loop BB1_3 Depth=1
                                        // =>  This Loop Header: Depth=2
                                        //       Child Loop BB1_152 Depth 3
                                        //         Child Loop BB1_155 Depth 4
                                        //           Child Loop BB1_158 Depth 5
                                        //             Child Loop BB1_161 Depth 6
	ldur	x8, [x29, #-208]                // 8-byte Folded Reload
	ldr	w8, [x8]
	sub	x11, x29, #2044
	stur	w8, [x11, #-256]                // 4-byte Folded Spill
	subs	w8, w8, #10
	cset	w8, ge
	tbnz	w8, #0, .LBB1_151
	b	.LBB1_150
.LBB1_150:                              // %outer.loop.body42
                                        //   in Loop: Header=BB1_149 Depth=2
	ldur	x11, [x29, #-208]               // 8-byte Folded Reload
	sub	x8, x29, #2044
	ldur	w8, [x8, #-256]                 // 4-byte Folded Reload
	add	w8, w8, #1
	str	w8, [x11]
	b	.LBB1_152
.LBB1_151:                              // %outer.loop.end43
                                        //   in Loop: Header=BB1_3 Depth=1
	b	.LBB1_7
.LBB1_152:                              // %inner.loop.cond44
                                        //   Parent Loop BB1_3 Depth=1
                                        //     Parent Loop BB1_149 Depth=2
                                        // =>    This Loop Header: Depth=3
                                        //         Child Loop BB1_155 Depth 4
                                        //           Child Loop BB1_158 Depth 5
                                        //             Child Loop BB1_161 Depth 6
	ldur	x8, [x29, #-200]                // 8-byte Folded Reload
	ldr	w8, [x8]
	sub	x11, x29, #2048
	stur	w8, [x11, #-256]                // 4-byte Folded Spill
	subs	w8, w8, #5
	cset	w8, ge
	tbnz	w8, #0, .LBB1_154
	b	.LBB1_153
.LBB1_153:                              // %inner.loop.body45
                                        //   in Loop: Header=BB1_152 Depth=3
	ldur	x11, [x29, #-200]               // 8-byte Folded Reload
	sub	x8, x29, #2048
	ldur	w8, [x8, #-256]                 // 4-byte Folded Reload
	add	w8, w8, #1
	str	w8, [x11]
	b	.LBB1_155
.LBB1_154:                              // %inner.loop.end46
                                        //   in Loop: Header=BB1_149 Depth=2
	b	.LBB1_149
.LBB1_155:                              // %inner.loop.cond47
                                        //   Parent Loop BB1_3 Depth=1
                                        //     Parent Loop BB1_149 Depth=2
                                        //       Parent Loop BB1_152 Depth=3
                                        // =>      This Loop Header: Depth=4
                                        //           Child Loop BB1_158 Depth 5
                                        //             Child Loop BB1_161 Depth 6
	ldur	x8, [x29, #-192]                // 8-byte Folded Reload
	ldr	w8, [x8]
	sub	x11, x29, #2052
	stur	w8, [x11, #-256]                // 4-byte Folded Spill
	subs	w8, w8, #5
	cset	w8, ge
	tbnz	w8, #0, .LBB1_157
	b	.LBB1_156
.LBB1_156:                              // %inner.loop.body48
                                        //   in Loop: Header=BB1_155 Depth=4
	ldur	x11, [x29, #-192]               // 8-byte Folded Reload
	sub	x8, x29, #2052
	ldur	w8, [x8, #-256]                 // 4-byte Folded Reload
	add	w8, w8, #1
	str	w8, [x11]
	b	.LBB1_158
.LBB1_157:                              // %inner.loop.end49
                                        //   in Loop: Header=BB1_152 Depth=3
	b	.LBB1_152
.LBB1_158:                              // %inner.loop.cond50
                                        //   Parent Loop BB1_3 Depth=1
                                        //     Parent Loop BB1_149 Depth=2
                                        //       Parent Loop BB1_152 Depth=3
                                        //         Parent Loop BB1_155 Depth=4
                                        // =>        This Loop Header: Depth=5
                                        //             Child Loop BB1_161 Depth 6
	ldur	x8, [x29, #-184]                // 8-byte Folded Reload
	ldr	w8, [x8]
	sub	x11, x29, #2056
	stur	w8, [x11, #-256]                // 4-byte Folded Spill
	subs	w8, w8, #5
	cset	w8, ge
	tbnz	w8, #0, .LBB1_160
	b	.LBB1_159
.LBB1_159:                              // %inner.loop.body51
                                        //   in Loop: Header=BB1_158 Depth=5
	ldur	x11, [x29, #-184]               // 8-byte Folded Reload
	sub	x8, x29, #2056
	ldur	w8, [x8, #-256]                 // 4-byte Folded Reload
	add	w8, w8, #1
	str	w8, [x11]
	b	.LBB1_161
.LBB1_160:                              // %inner.loop.end52
                                        //   in Loop: Header=BB1_155 Depth=4
	b	.LBB1_155
.LBB1_161:                              // %inner.loop.cond53
                                        //   Parent Loop BB1_3 Depth=1
                                        //     Parent Loop BB1_149 Depth=2
                                        //       Parent Loop BB1_152 Depth=3
                                        //         Parent Loop BB1_155 Depth=4
                                        //           Parent Loop BB1_158 Depth=5
                                        // =>          This Inner Loop Header: Depth=6
	ldur	x8, [x29, #-176]                // 8-byte Folded Reload
	ldr	w8, [x8]
	sub	x11, x29, #2060
	stur	w8, [x11, #-256]                // 4-byte Folded Spill
	subs	w8, w8, #5
	cset	w8, ge
	tbnz	w8, #0, .LBB1_163
	b	.LBB1_162
.LBB1_162:                              // %inner.loop.body54
                                        //   in Loop: Header=BB1_161 Depth=6
	ldur	x8, [x29, #-168]                // 8-byte Folded Reload
	ldur	x12, [x29, #-176]               // 8-byte Folded Reload
	sub	x11, x29, #2060
	ldur	w11, [x11, #-256]               // 4-byte Folded Reload
	add	w11, w11, #1
	str	w11, [x12]
	ldr	w8, [x8]
	subs	w8, w8, #0
	cset	w8, gt
	tbnz	w8, #0, .LBB1_161
	b	.LBB1_148
.LBB1_163:                              // %inner.loop.end55
                                        //   in Loop: Header=BB1_158 Depth=5
	b	.LBB1_158
.LBB1_164:                              // %excute.cond63
                                        //   in Loop: Header=BB1_3 Depth=1
	ldur	x11, [x29, #-224]               // 8-byte Folded Reload
	ldr	w8, [x11]
	add	w8, w8, #1
	str	w8, [x11]
	b	.LBB1_10
.LBB1_165:                              // %outer.loop.cond64
                                        //   Parent Loop BB1_3 Depth=1
                                        // =>  This Loop Header: Depth=2
                                        //       Child Loop BB1_168 Depth 3
                                        //         Child Loop BB1_171 Depth 4
                                        //           Child Loop BB1_174 Depth 5
                                        //             Child Loop BB1_177 Depth 6
	sub	x8, x29, #8
	ldur	x8, [x8, #-256]                 // 8-byte Folded Reload
	ldr	w8, [x8]
	sub	x11, x29, #2064
	stur	w8, [x11, #-256]                // 4-byte Folded Spill
	subs	w8, w8, #10
	cset	w8, ge
	tbnz	w8, #0, .LBB1_167
	b	.LBB1_166
.LBB1_166:                              // %outer.loop.body65
                                        //   in Loop: Header=BB1_165 Depth=2
	sub	x8, x29, #8
	ldur	x11, [x8, #-256]                // 8-byte Folded Reload
	sub	x8, x29, #2064
	ldur	w8, [x8, #-256]                 // 4-byte Folded Reload
	add	w8, w8, #1
	str	w8, [x11]
	b	.LBB1_168
.LBB1_167:                              // %outer.loop.end66
                                        //   in Loop: Header=BB1_3 Depth=1
	b	.LBB1_10
.LBB1_168:                              // %inner.loop.cond67
                                        //   Parent Loop BB1_3 Depth=1
                                        //     Parent Loop BB1_165 Depth=2
                                        // =>    This Loop Header: Depth=3
                                        //         Child Loop BB1_171 Depth 4
                                        //           Child Loop BB1_174 Depth 5
                                        //             Child Loop BB1_177 Depth 6
	ldur	x8, [x29, #-256]                // 8-byte Folded Reload
	ldr	w8, [x8]
	sub	x11, x29, #2068
	stur	w8, [x11, #-256]                // 4-byte Folded Spill
	subs	w8, w8, #5
	cset	w8, ge
	tbnz	w8, #0, .LBB1_170
	b	.LBB1_169
.LBB1_169:                              // %inner.loop.body68
                                        //   in Loop: Header=BB1_168 Depth=3
	ldur	x11, [x29, #-256]               // 8-byte Folded Reload
	sub	x8, x29, #2068
	ldur	w8, [x8, #-256]                 // 4-byte Folded Reload
	add	w8, w8, #1
	str	w8, [x11]
	b	.LBB1_171
.LBB1_170:                              // %inner.loop.end69
                                        //   in Loop: Header=BB1_165 Depth=2
	b	.LBB1_165
.LBB1_171:                              // %inner.loop.cond70
                                        //   Parent Loop BB1_3 Depth=1
                                        //     Parent Loop BB1_165 Depth=2
                                        //       Parent Loop BB1_168 Depth=3
                                        // =>      This Loop Header: Depth=4
                                        //           Child Loop BB1_174 Depth 5
                                        //             Child Loop BB1_177 Depth 6
	ldur	x8, [x29, #-248]                // 8-byte Folded Reload
	ldr	w8, [x8]
	sub	x11, x29, #2072
	stur	w8, [x11, #-256]                // 4-byte Folded Spill
	subs	w8, w8, #5
	cset	w8, ge
	tbnz	w8, #0, .LBB1_173
	b	.LBB1_172
.LBB1_172:                              // %inner.loop.body71
                                        //   in Loop: Header=BB1_171 Depth=4
	ldur	x11, [x29, #-248]               // 8-byte Folded Reload
	sub	x8, x29, #2072
	ldur	w8, [x8, #-256]                 // 4-byte Folded Reload
	add	w8, w8, #1
	str	w8, [x11]
	b	.LBB1_174
.LBB1_173:                              // %inner.loop.end72
                                        //   in Loop: Header=BB1_168 Depth=3
	b	.LBB1_168
.LBB1_174:                              // %inner.loop.cond73
                                        //   Parent Loop BB1_3 Depth=1
                                        //     Parent Loop BB1_165 Depth=2
                                        //       Parent Loop BB1_168 Depth=3
                                        //         Parent Loop BB1_171 Depth=4
                                        // =>        This Loop Header: Depth=5
                                        //             Child Loop BB1_177 Depth 6
	ldur	x8, [x29, #-240]                // 8-byte Folded Reload
	ldr	w8, [x8]
	sub	x11, x29, #2076
	stur	w8, [x11, #-256]                // 4-byte Folded Spill
	subs	w8, w8, #5
	cset	w8, ge
	tbnz	w8, #0, .LBB1_176
	b	.LBB1_175
.LBB1_175:                              // %inner.loop.body74
                                        //   in Loop: Header=BB1_174 Depth=5
	ldur	x11, [x29, #-240]               // 8-byte Folded Reload
	sub	x8, x29, #2076
	ldur	w8, [x8, #-256]                 // 4-byte Folded Reload
	add	w8, w8, #1
	str	w8, [x11]
	b	.LBB1_177
.LBB1_176:                              // %inner.loop.end75
                                        //   in Loop: Header=BB1_171 Depth=4
	b	.LBB1_171
.LBB1_177:                              // %inner.loop.cond76
                                        //   Parent Loop BB1_3 Depth=1
                                        //     Parent Loop BB1_165 Depth=2
                                        //       Parent Loop BB1_168 Depth=3
                                        //         Parent Loop BB1_171 Depth=4
                                        //           Parent Loop BB1_174 Depth=5
                                        // =>          This Inner Loop Header: Depth=6
	ldur	x8, [x29, #-232]                // 8-byte Folded Reload
	ldr	w8, [x8]
	sub	x11, x29, #2080
	stur	w8, [x11, #-256]                // 4-byte Folded Spill
	subs	w8, w8, #5
	cset	w8, ge
	tbnz	w8, #0, .LBB1_179
	b	.LBB1_178
.LBB1_178:                              // %inner.loop.body77
                                        //   in Loop: Header=BB1_177 Depth=6
	ldur	x8, [x29, #-224]                // 8-byte Folded Reload
	ldur	x12, [x29, #-232]               // 8-byte Folded Reload
	sub	x11, x29, #2080
	ldur	w11, [x11, #-256]               // 4-byte Folded Reload
	add	w11, w11, #1
	str	w11, [x12]
	ldr	w8, [x8]
	subs	w8, w8, #0
	cset	w8, gt
	tbnz	w8, #0, .LBB1_177
	b	.LBB1_164
.LBB1_179:                              // %inner.loop.end78
                                        //   in Loop: Header=BB1_174 Depth=5
	b	.LBB1_174
.LBB1_180:                              // %excute.cond86
                                        //   in Loop: Header=BB1_3 Depth=1
	sub	x8, x29, #24
	ldur	x11, [x8, #-256]                // 8-byte Folded Reload
	ldr	w8, [x11]
	add	w8, w8, #1
	str	w8, [x11]
	b	.LBB1_13
.LBB1_181:                              // %outer.loop.cond87
                                        //   Parent Loop BB1_3 Depth=1
                                        // =>  This Loop Header: Depth=2
                                        //       Child Loop BB1_184 Depth 3
                                        //         Child Loop BB1_187 Depth 4
                                        //           Child Loop BB1_190 Depth 5
                                        //             Child Loop BB1_193 Depth 6
	sub	x8, x29, #64
	ldur	x8, [x8, #-256]                 // 8-byte Folded Reload
	ldr	w8, [x8]
	sub	x11, x29, #2084
	stur	w8, [x11, #-256]                // 4-byte Folded Spill
	subs	w8, w8, #10
	cset	w8, ge
	tbnz	w8, #0, .LBB1_183
	b	.LBB1_182
.LBB1_182:                              // %outer.loop.body88
                                        //   in Loop: Header=BB1_181 Depth=2
	sub	x8, x29, #64
	ldur	x11, [x8, #-256]                // 8-byte Folded Reload
	sub	x8, x29, #2084
	ldur	w8, [x8, #-256]                 // 4-byte Folded Reload
	add	w8, w8, #1
	str	w8, [x11]
	b	.LBB1_184
.LBB1_183:                              // %outer.loop.end89
                                        //   in Loop: Header=BB1_3 Depth=1
	b	.LBB1_13
.LBB1_184:                              // %inner.loop.cond90
                                        //   Parent Loop BB1_3 Depth=1
                                        //     Parent Loop BB1_181 Depth=2
                                        // =>    This Loop Header: Depth=3
                                        //         Child Loop BB1_187 Depth 4
                                        //           Child Loop BB1_190 Depth 5
                                        //             Child Loop BB1_193 Depth 6
	sub	x8, x29, #56
	ldur	x8, [x8, #-256]                 // 8-byte Folded Reload
	ldr	w8, [x8]
	sub	x11, x29, #2088
	stur	w8, [x11, #-256]                // 4-byte Folded Spill
	subs	w8, w8, #5
	cset	w8, ge
	tbnz	w8, #0, .LBB1_186
	b	.LBB1_185
.LBB1_185:                              // %inner.loop.body91
                                        //   in Loop: Header=BB1_184 Depth=3
	sub	x8, x29, #56
	ldur	x11, [x8, #-256]                // 8-byte Folded Reload
	sub	x8, x29, #2088
	ldur	w8, [x8, #-256]                 // 4-byte Folded Reload
	add	w8, w8, #1
	str	w8, [x11]
	b	.LBB1_187
.LBB1_186:                              // %inner.loop.end92
                                        //   in Loop: Header=BB1_181 Depth=2
	b	.LBB1_181
.LBB1_187:                              // %inner.loop.cond93
                                        //   Parent Loop BB1_3 Depth=1
                                        //     Parent Loop BB1_181 Depth=2
                                        //       Parent Loop BB1_184 Depth=3
                                        // =>      This Loop Header: Depth=4
                                        //           Child Loop BB1_190 Depth 5
                                        //             Child Loop BB1_193 Depth 6
	sub	x8, x29, #48
	ldur	x8, [x8, #-256]                 // 8-byte Folded Reload
	ldr	w8, [x8]
	sub	x11, x29, #2092
	stur	w8, [x11, #-256]                // 4-byte Folded Spill
	subs	w8, w8, #5
	cset	w8, ge
	tbnz	w8, #0, .LBB1_189
	b	.LBB1_188
.LBB1_188:                              // %inner.loop.body94
                                        //   in Loop: Header=BB1_187 Depth=4
	sub	x8, x29, #48
	ldur	x11, [x8, #-256]                // 8-byte Folded Reload
	sub	x8, x29, #2092
	ldur	w8, [x8, #-256]                 // 4-byte Folded Reload
	add	w8, w8, #1
	str	w8, [x11]
	b	.LBB1_190
.LBB1_189:                              // %inner.loop.end95
                                        //   in Loop: Header=BB1_184 Depth=3
	b	.LBB1_184
.LBB1_190:                              // %inner.loop.cond96
                                        //   Parent Loop BB1_3 Depth=1
                                        //     Parent Loop BB1_181 Depth=2
                                        //       Parent Loop BB1_184 Depth=3
                                        //         Parent Loop BB1_187 Depth=4
                                        // =>        This Loop Header: Depth=5
                                        //             Child Loop BB1_193 Depth 6
	sub	x8, x29, #40
	ldur	x8, [x8, #-256]                 // 8-byte Folded Reload
	ldr	w8, [x8]
	sub	x11, x29, #2096
	stur	w8, [x11, #-256]                // 4-byte Folded Spill
	subs	w8, w8, #5
	cset	w8, ge
	tbnz	w8, #0, .LBB1_192
	b	.LBB1_191
.LBB1_191:                              // %inner.loop.body97
                                        //   in Loop: Header=BB1_190 Depth=5
	sub	x8, x29, #40
	ldur	x11, [x8, #-256]                // 8-byte Folded Reload
	sub	x8, x29, #2096
	ldur	w8, [x8, #-256]                 // 4-byte Folded Reload
	add	w8, w8, #1
	str	w8, [x11]
	b	.LBB1_193
.LBB1_192:                              // %inner.loop.end98
                                        //   in Loop: Header=BB1_187 Depth=4
	b	.LBB1_187
.LBB1_193:                              // %inner.loop.cond99
                                        //   Parent Loop BB1_3 Depth=1
                                        //     Parent Loop BB1_181 Depth=2
                                        //       Parent Loop BB1_184 Depth=3
                                        //         Parent Loop BB1_187 Depth=4
                                        //           Parent Loop BB1_190 Depth=5
                                        // =>          This Inner Loop Header: Depth=6
	sub	x8, x29, #32
	ldur	x8, [x8, #-256]                 // 8-byte Folded Reload
	ldr	w8, [x8]
	sub	x11, x29, #2100
	stur	w8, [x11, #-256]                // 4-byte Folded Spill
	subs	w8, w8, #5
	cset	w8, ge
	tbnz	w8, #0, .LBB1_195
	b	.LBB1_194
.LBB1_194:                              // %inner.loop.body100
                                        //   in Loop: Header=BB1_193 Depth=6
	sub	x8, x29, #24
	ldur	x8, [x8, #-256]                 // 8-byte Folded Reload
	sub	x11, x29, #32
	ldur	x12, [x11, #-256]               // 8-byte Folded Reload
	sub	x11, x29, #2100
	ldur	w11, [x11, #-256]               // 4-byte Folded Reload
	add	w11, w11, #1
	str	w11, [x12]
	ldr	w8, [x8]
	subs	w8, w8, #0
	cset	w8, gt
	tbnz	w8, #0, .LBB1_193
	b	.LBB1_180
.LBB1_195:                              // %inner.loop.end101
                                        //   in Loop: Header=BB1_190 Depth=5
	b	.LBB1_190
.LBB1_196:                              // %excute.cond109
                                        //   in Loop: Header=BB1_3 Depth=1
	sub	x8, x29, #80
	ldur	x11, [x8, #-256]                // 8-byte Folded Reload
	ldr	w8, [x11]
	add	w8, w8, #1
	str	w8, [x11]
	b	.LBB1_16
.LBB1_197:                              // %outer.loop.cond110
                                        //   Parent Loop BB1_3 Depth=1
                                        // =>  This Loop Header: Depth=2
                                        //       Child Loop BB1_200 Depth 3
                                        //         Child Loop BB1_203 Depth 4
                                        //           Child Loop BB1_206 Depth 5
                                        //             Child Loop BB1_209 Depth 6
	sub	x8, x29, #120
	ldur	x8, [x8, #-256]                 // 8-byte Folded Reload
	ldr	w8, [x8]
	sub	x11, x29, #2104
	stur	w8, [x11, #-256]                // 4-byte Folded Spill
	subs	w8, w8, #10
	cset	w8, ge
	tbnz	w8, #0, .LBB1_199
	b	.LBB1_198
.LBB1_198:                              // %outer.loop.body111
                                        //   in Loop: Header=BB1_197 Depth=2
	sub	x8, x29, #120
	ldur	x11, [x8, #-256]                // 8-byte Folded Reload
	sub	x8, x29, #2104
	ldur	w8, [x8, #-256]                 // 4-byte Folded Reload
	add	w8, w8, #1
	str	w8, [x11]
	b	.LBB1_200
.LBB1_199:                              // %outer.loop.end112
                                        //   in Loop: Header=BB1_3 Depth=1
	b	.LBB1_16
.LBB1_200:                              // %inner.loop.cond113
                                        //   Parent Loop BB1_3 Depth=1
                                        //     Parent Loop BB1_197 Depth=2
                                        // =>    This Loop Header: Depth=3
                                        //         Child Loop BB1_203 Depth 4
                                        //           Child Loop BB1_206 Depth 5
                                        //             Child Loop BB1_209 Depth 6
	sub	x8, x29, #112
	ldur	x8, [x8, #-256]                 // 8-byte Folded Reload
	ldr	w8, [x8]
	sub	x11, x29, #2108
	stur	w8, [x11, #-256]                // 4-byte Folded Spill
	subs	w8, w8, #5
	cset	w8, ge
	tbnz	w8, #0, .LBB1_202
	b	.LBB1_201
.LBB1_201:                              // %inner.loop.body114
                                        //   in Loop: Header=BB1_200 Depth=3
	sub	x8, x29, #112
	ldur	x11, [x8, #-256]                // 8-byte Folded Reload
	sub	x8, x29, #2108
	ldur	w8, [x8, #-256]                 // 4-byte Folded Reload
	add	w8, w8, #1
	str	w8, [x11]
	b	.LBB1_203
.LBB1_202:                              // %inner.loop.end115
                                        //   in Loop: Header=BB1_197 Depth=2
	b	.LBB1_197
.LBB1_203:                              // %inner.loop.cond116
                                        //   Parent Loop BB1_3 Depth=1
                                        //     Parent Loop BB1_197 Depth=2
                                        //       Parent Loop BB1_200 Depth=3
                                        // =>      This Loop Header: Depth=4
                                        //           Child Loop BB1_206 Depth 5
                                        //             Child Loop BB1_209 Depth 6
	sub	x8, x29, #104
	ldur	x8, [x8, #-256]                 // 8-byte Folded Reload
	ldr	w8, [x8]
	sub	x11, x29, #2112
	stur	w8, [x11, #-256]                // 4-byte Folded Spill
	subs	w8, w8, #5
	cset	w8, ge
	tbnz	w8, #0, .LBB1_205
	b	.LBB1_204
.LBB1_204:                              // %inner.loop.body117
                                        //   in Loop: Header=BB1_203 Depth=4
	sub	x8, x29, #104
	ldur	x11, [x8, #-256]                // 8-byte Folded Reload
	sub	x8, x29, #2112
	ldur	w8, [x8, #-256]                 // 4-byte Folded Reload
	add	w8, w8, #1
	str	w8, [x11]
	b	.LBB1_206
.LBB1_205:                              // %inner.loop.end118
                                        //   in Loop: Header=BB1_200 Depth=3
	b	.LBB1_200
.LBB1_206:                              // %inner.loop.cond119
                                        //   Parent Loop BB1_3 Depth=1
                                        //     Parent Loop BB1_197 Depth=2
                                        //       Parent Loop BB1_200 Depth=3
                                        //         Parent Loop BB1_203 Depth=4
                                        // =>        This Loop Header: Depth=5
                                        //             Child Loop BB1_209 Depth 6
	sub	x8, x29, #96
	ldur	x8, [x8, #-256]                 // 8-byte Folded Reload
	ldr	w8, [x8]
	sub	x11, x29, #2116
	stur	w8, [x11, #-256]                // 4-byte Folded Spill
	subs	w8, w8, #5
	cset	w8, ge
	tbnz	w8, #0, .LBB1_208
	b	.LBB1_207
.LBB1_207:                              // %inner.loop.body120
                                        //   in Loop: Header=BB1_206 Depth=5
	sub	x8, x29, #96
	ldur	x11, [x8, #-256]                // 8-byte Folded Reload
	sub	x8, x29, #2116
	ldur	w8, [x8, #-256]                 // 4-byte Folded Reload
	add	w8, w8, #1
	str	w8, [x11]
	b	.LBB1_209
.LBB1_208:                              // %inner.loop.end121
                                        //   in Loop: Header=BB1_203 Depth=4
	b	.LBB1_203
.LBB1_209:                              // %inner.loop.cond122
                                        //   Parent Loop BB1_3 Depth=1
                                        //     Parent Loop BB1_197 Depth=2
                                        //       Parent Loop BB1_200 Depth=3
                                        //         Parent Loop BB1_203 Depth=4
                                        //           Parent Loop BB1_206 Depth=5
                                        // =>          This Inner Loop Header: Depth=6
	sub	x8, x29, #88
	ldur	x8, [x8, #-256]                 // 8-byte Folded Reload
	ldr	w8, [x8]
	sub	x11, x29, #2120
	stur	w8, [x11, #-256]                // 4-byte Folded Spill
	subs	w8, w8, #5
	cset	w8, ge
	tbnz	w8, #0, .LBB1_211
	b	.LBB1_210
.LBB1_210:                              // %inner.loop.body123
                                        //   in Loop: Header=BB1_209 Depth=6
	sub	x8, x29, #80
	ldur	x8, [x8, #-256]                 // 8-byte Folded Reload
	sub	x11, x29, #88
	ldur	x12, [x11, #-256]               // 8-byte Folded Reload
	sub	x11, x29, #2120
	ldur	w11, [x11, #-256]               // 4-byte Folded Reload
	add	w11, w11, #1
	str	w11, [x12]
	ldr	w8, [x8]
	subs	w8, w8, #0
	cset	w8, gt
	tbnz	w8, #0, .LBB1_209
	b	.LBB1_196
.LBB1_211:                              // %inner.loop.end124
                                        //   in Loop: Header=BB1_206 Depth=5
	b	.LBB1_206
.LBB1_212:                              // %excute.cond132
                                        //   in Loop: Header=BB1_3 Depth=1
	sub	x8, x29, #136
	ldur	x11, [x8, #-256]                // 8-byte Folded Reload
	ldr	w8, [x11]
	add	w8, w8, #1
	str	w8, [x11]
	b	.LBB1_19
.LBB1_213:                              // %outer.loop.cond133
                                        //   Parent Loop BB1_3 Depth=1
                                        // =>  This Loop Header: Depth=2
                                        //       Child Loop BB1_216 Depth 3
                                        //         Child Loop BB1_219 Depth 4
                                        //           Child Loop BB1_222 Depth 5
                                        //             Child Loop BB1_225 Depth 6
	sub	x8, x29, #176
	ldur	x8, [x8, #-256]                 // 8-byte Folded Reload
	ldr	w8, [x8]
	sub	x11, x29, #2124
	stur	w8, [x11, #-256]                // 4-byte Folded Spill
	subs	w8, w8, #10
	cset	w8, ge
	tbnz	w8, #0, .LBB1_215
	b	.LBB1_214
.LBB1_214:                              // %outer.loop.body134
                                        //   in Loop: Header=BB1_213 Depth=2
	sub	x8, x29, #176
	ldur	x11, [x8, #-256]                // 8-byte Folded Reload
	sub	x8, x29, #2124
	ldur	w8, [x8, #-256]                 // 4-byte Folded Reload
	add	w8, w8, #1
	str	w8, [x11]
	b	.LBB1_216
.LBB1_215:                              // %outer.loop.end135
                                        //   in Loop: Header=BB1_3 Depth=1
	b	.LBB1_19
.LBB1_216:                              // %inner.loop.cond136
                                        //   Parent Loop BB1_3 Depth=1
                                        //     Parent Loop BB1_213 Depth=2
                                        // =>    This Loop Header: Depth=3
                                        //         Child Loop BB1_219 Depth 4
                                        //           Child Loop BB1_222 Depth 5
                                        //             Child Loop BB1_225 Depth 6
	sub	x8, x29, #168
	ldur	x8, [x8, #-256]                 // 8-byte Folded Reload
	ldr	w8, [x8]
	sub	x11, x29, #2128
	stur	w8, [x11, #-256]                // 4-byte Folded Spill
	subs	w8, w8, #5
	cset	w8, ge
	tbnz	w8, #0, .LBB1_218
	b	.LBB1_217
.LBB1_217:                              // %inner.loop.body137
                                        //   in Loop: Header=BB1_216 Depth=3
	sub	x8, x29, #168
	ldur	x11, [x8, #-256]                // 8-byte Folded Reload
	sub	x8, x29, #2128
	ldur	w8, [x8, #-256]                 // 4-byte Folded Reload
	add	w8, w8, #1
	str	w8, [x11]
	b	.LBB1_219
.LBB1_218:                              // %inner.loop.end138
                                        //   in Loop: Header=BB1_213 Depth=2
	b	.LBB1_213
.LBB1_219:                              // %inner.loop.cond139
                                        //   Parent Loop BB1_3 Depth=1
                                        //     Parent Loop BB1_213 Depth=2
                                        //       Parent Loop BB1_216 Depth=3
                                        // =>      This Loop Header: Depth=4
                                        //           Child Loop BB1_222 Depth 5
                                        //             Child Loop BB1_225 Depth 6
	sub	x8, x29, #160
	ldur	x8, [x8, #-256]                 // 8-byte Folded Reload
	ldr	w8, [x8]
	sub	x11, x29, #2132
	stur	w8, [x11, #-256]                // 4-byte Folded Spill
	subs	w8, w8, #5
	cset	w8, ge
	tbnz	w8, #0, .LBB1_221
	b	.LBB1_220
.LBB1_220:                              // %inner.loop.body140
                                        //   in Loop: Header=BB1_219 Depth=4
	sub	x8, x29, #160
	ldur	x11, [x8, #-256]                // 8-byte Folded Reload
	sub	x8, x29, #2132
	ldur	w8, [x8, #-256]                 // 4-byte Folded Reload
	add	w8, w8, #1
	str	w8, [x11]
	b	.LBB1_222
.LBB1_221:                              // %inner.loop.end141
                                        //   in Loop: Header=BB1_216 Depth=3
	b	.LBB1_216
.LBB1_222:                              // %inner.loop.cond142
                                        //   Parent Loop BB1_3 Depth=1
                                        //     Parent Loop BB1_213 Depth=2
                                        //       Parent Loop BB1_216 Depth=3
                                        //         Parent Loop BB1_219 Depth=4
                                        // =>        This Loop Header: Depth=5
                                        //             Child Loop BB1_225 Depth 6
	sub	x8, x29, #152
	ldur	x8, [x8, #-256]                 // 8-byte Folded Reload
	ldr	w8, [x8]
	sub	x11, x29, #2136
	stur	w8, [x11, #-256]                // 4-byte Folded Spill
	subs	w8, w8, #5
	cset	w8, ge
	tbnz	w8, #0, .LBB1_224
	b	.LBB1_223
.LBB1_223:                              // %inner.loop.body143
                                        //   in Loop: Header=BB1_222 Depth=5
	sub	x8, x29, #152
	ldur	x11, [x8, #-256]                // 8-byte Folded Reload
	sub	x8, x29, #2136
	ldur	w8, [x8, #-256]                 // 4-byte Folded Reload
	add	w8, w8, #1
	str	w8, [x11]
	b	.LBB1_225
.LBB1_224:                              // %inner.loop.end144
                                        //   in Loop: Header=BB1_219 Depth=4
	b	.LBB1_219
.LBB1_225:                              // %inner.loop.cond145
                                        //   Parent Loop BB1_3 Depth=1
                                        //     Parent Loop BB1_213 Depth=2
                                        //       Parent Loop BB1_216 Depth=3
                                        //         Parent Loop BB1_219 Depth=4
                                        //           Parent Loop BB1_222 Depth=5
                                        // =>          This Inner Loop Header: Depth=6
	sub	x8, x29, #144
	ldur	x8, [x8, #-256]                 // 8-byte Folded Reload
	ldr	w8, [x8]
	sub	x11, x29, #2140
	stur	w8, [x11, #-256]                // 4-byte Folded Spill
	subs	w8, w8, #5
	cset	w8, ge
	tbnz	w8, #0, .LBB1_227
	b	.LBB1_226
.LBB1_226:                              // %inner.loop.body146
                                        //   in Loop: Header=BB1_225 Depth=6
	sub	x8, x29, #136
	ldur	x8, [x8, #-256]                 // 8-byte Folded Reload
	sub	x11, x29, #144
	ldur	x12, [x11, #-256]               // 8-byte Folded Reload
	sub	x11, x29, #2140
	ldur	w11, [x11, #-256]               // 4-byte Folded Reload
	add	w11, w11, #1
	str	w11, [x12]
	ldr	w8, [x8]
	subs	w8, w8, #0
	cset	w8, gt
	tbnz	w8, #0, .LBB1_225
	b	.LBB1_212
.LBB1_227:                              // %inner.loop.end147
                                        //   in Loop: Header=BB1_222 Depth=5
	b	.LBB1_222
.LBB1_228:                              // %excute.cond155
                                        //   in Loop: Header=BB1_3 Depth=1
	sub	x8, x29, #184
	ldur	x11, [x8, #-256]                // 8-byte Folded Reload
	ldr	w8, [x11]
	add	w8, w8, #1
	str	w8, [x11]
	b	.LBB1_22
.LBB1_229:                              // %outer.loop.cond156
                                        //   Parent Loop BB1_3 Depth=1
                                        // =>  This Loop Header: Depth=2
                                        //       Child Loop BB1_232 Depth 3
                                        //         Child Loop BB1_235 Depth 4
                                        //           Child Loop BB1_238 Depth 5
                                        //             Child Loop BB1_241 Depth 6
	sub	x8, x29, #224
	ldur	x8, [x8, #-256]                 // 8-byte Folded Reload
	ldr	w8, [x8]
	sub	x11, x29, #2144
	stur	w8, [x11, #-256]                // 4-byte Folded Spill
	subs	w8, w8, #10
	cset	w8, ge
	tbnz	w8, #0, .LBB1_231
	b	.LBB1_230
.LBB1_230:                              // %outer.loop.body157
                                        //   in Loop: Header=BB1_229 Depth=2
	sub	x8, x29, #224
	ldur	x11, [x8, #-256]                // 8-byte Folded Reload
	sub	x8, x29, #2144
	ldur	w8, [x8, #-256]                 // 4-byte Folded Reload
	add	w8, w8, #1
	str	w8, [x11]
	b	.LBB1_232
.LBB1_231:                              // %outer.loop.end158
                                        //   in Loop: Header=BB1_3 Depth=1
	b	.LBB1_22
.LBB1_232:                              // %inner.loop.cond159
                                        //   Parent Loop BB1_3 Depth=1
                                        //     Parent Loop BB1_229 Depth=2
                                        // =>    This Loop Header: Depth=3
                                        //         Child Loop BB1_235 Depth 4
                                        //           Child Loop BB1_238 Depth 5
                                        //             Child Loop BB1_241 Depth 6
	sub	x8, x29, #216
	ldur	x8, [x8, #-256]                 // 8-byte Folded Reload
	ldr	w8, [x8]
	sub	x11, x29, #2148
	stur	w8, [x11, #-256]                // 4-byte Folded Spill
	subs	w8, w8, #5
	cset	w8, ge
	tbnz	w8, #0, .LBB1_234
	b	.LBB1_233
.LBB1_233:                              // %inner.loop.body160
                                        //   in Loop: Header=BB1_232 Depth=3
	sub	x8, x29, #216
	ldur	x11, [x8, #-256]                // 8-byte Folded Reload
	sub	x8, x29, #2148
	ldur	w8, [x8, #-256]                 // 4-byte Folded Reload
	add	w8, w8, #1
	str	w8, [x11]
	b	.LBB1_235
.LBB1_234:                              // %inner.loop.end161
                                        //   in Loop: Header=BB1_229 Depth=2
	b	.LBB1_229
.LBB1_235:                              // %inner.loop.cond162
                                        //   Parent Loop BB1_3 Depth=1
                                        //     Parent Loop BB1_229 Depth=2
                                        //       Parent Loop BB1_232 Depth=3
                                        // =>      This Loop Header: Depth=4
                                        //           Child Loop BB1_238 Depth 5
                                        //             Child Loop BB1_241 Depth 6
	sub	x8, x29, #208
	ldur	x8, [x8, #-256]                 // 8-byte Folded Reload
	ldr	w8, [x8]
	sub	x11, x29, #2152
	stur	w8, [x11, #-256]                // 4-byte Folded Spill
	subs	w8, w8, #5
	cset	w8, ge
	tbnz	w8, #0, .LBB1_237
	b	.LBB1_236
.LBB1_236:                              // %inner.loop.body163
                                        //   in Loop: Header=BB1_235 Depth=4
	sub	x8, x29, #208
	ldur	x11, [x8, #-256]                // 8-byte Folded Reload
	sub	x8, x29, #2152
	ldur	w8, [x8, #-256]                 // 4-byte Folded Reload
	add	w8, w8, #1
	str	w8, [x11]
	b	.LBB1_238
.LBB1_237:                              // %inner.loop.end164
                                        //   in Loop: Header=BB1_232 Depth=3
	b	.LBB1_232
.LBB1_238:                              // %inner.loop.cond165
                                        //   Parent Loop BB1_3 Depth=1
                                        //     Parent Loop BB1_229 Depth=2
                                        //       Parent Loop BB1_232 Depth=3
                                        //         Parent Loop BB1_235 Depth=4
                                        // =>        This Loop Header: Depth=5
                                        //             Child Loop BB1_241 Depth 6
	sub	x8, x29, #200
	ldur	x8, [x8, #-256]                 // 8-byte Folded Reload
	ldr	w8, [x8]
	sub	x11, x29, #2156
	stur	w8, [x11, #-256]                // 4-byte Folded Spill
	subs	w8, w8, #5
	cset	w8, ge
	tbnz	w8, #0, .LBB1_240
	b	.LBB1_239
.LBB1_239:                              // %inner.loop.body166
                                        //   in Loop: Header=BB1_238 Depth=5
	sub	x8, x29, #200
	ldur	x11, [x8, #-256]                // 8-byte Folded Reload
	sub	x8, x29, #2156
	ldur	w8, [x8, #-256]                 // 4-byte Folded Reload
	add	w8, w8, #1
	str	w8, [x11]
	b	.LBB1_241
.LBB1_240:                              // %inner.loop.end167
                                        //   in Loop: Header=BB1_235 Depth=4
	b	.LBB1_235
.LBB1_241:                              // %inner.loop.cond168
                                        //   Parent Loop BB1_3 Depth=1
                                        //     Parent Loop BB1_229 Depth=2
                                        //       Parent Loop BB1_232 Depth=3
                                        //         Parent Loop BB1_235 Depth=4
                                        //           Parent Loop BB1_238 Depth=5
                                        // =>          This Inner Loop Header: Depth=6
	sub	x8, x29, #192
	ldur	x8, [x8, #-256]                 // 8-byte Folded Reload
	ldr	w8, [x8]
	sub	x11, x29, #2160
	stur	w8, [x11, #-256]                // 4-byte Folded Spill
	subs	w8, w8, #5
	cset	w8, ge
	tbnz	w8, #0, .LBB1_243
	b	.LBB1_242
.LBB1_242:                              // %inner.loop.body169
                                        //   in Loop: Header=BB1_241 Depth=6
	sub	x8, x29, #184
	ldur	x8, [x8, #-256]                 // 8-byte Folded Reload
	sub	x11, x29, #192
	ldur	x12, [x11, #-256]               // 8-byte Folded Reload
	sub	x11, x29, #2160
	ldur	w11, [x11, #-256]               // 4-byte Folded Reload
	add	w11, w11, #1
	str	w11, [x12]
	ldr	w8, [x8]
	subs	w8, w8, #0
	cset	w8, gt
	tbnz	w8, #0, .LBB1_241
	b	.LBB1_228
.LBB1_243:                              // %inner.loop.end170
                                        //   in Loop: Header=BB1_238 Depth=5
	b	.LBB1_238
.LBB1_244:                              // %excute.cond178
                                        //   in Loop: Header=BB1_3 Depth=1
	sub	x8, x29, #232
	ldur	x11, [x8, #-256]                // 8-byte Folded Reload
	ldr	w8, [x11]
	add	w8, w8, #1
	str	w8, [x11]
	b	.LBB1_25
.LBB1_245:                              // %outer.loop.cond179
                                        //   Parent Loop BB1_3 Depth=1
                                        // =>  This Loop Header: Depth=2
                                        //       Child Loop BB1_248 Depth 3
                                        //         Child Loop BB1_251 Depth 4
                                        //           Child Loop BB1_254 Depth 5
                                        //             Child Loop BB1_257 Depth 6
	sub	x8, x29, #272
	ldur	x8, [x8, #-256]                 // 8-byte Folded Reload
	ldr	w8, [x8]
	sub	x11, x29, #2164
	stur	w8, [x11, #-256]                // 4-byte Folded Spill
	subs	w8, w8, #10
	cset	w8, ge
	tbnz	w8, #0, .LBB1_247
	b	.LBB1_246
.LBB1_246:                              // %outer.loop.body180
                                        //   in Loop: Header=BB1_245 Depth=2
	sub	x8, x29, #272
	ldur	x11, [x8, #-256]                // 8-byte Folded Reload
	sub	x8, x29, #2164
	ldur	w8, [x8, #-256]                 // 4-byte Folded Reload
	add	w8, w8, #1
	str	w8, [x11]
	b	.LBB1_248
.LBB1_247:                              // %outer.loop.end181
                                        //   in Loop: Header=BB1_3 Depth=1
	b	.LBB1_25
.LBB1_248:                              // %inner.loop.cond182
                                        //   Parent Loop BB1_3 Depth=1
                                        //     Parent Loop BB1_245 Depth=2
                                        // =>    This Loop Header: Depth=3
                                        //         Child Loop BB1_251 Depth 4
                                        //           Child Loop BB1_254 Depth 5
                                        //             Child Loop BB1_257 Depth 6
	sub	x8, x29, #264
	ldur	x8, [x8, #-256]                 // 8-byte Folded Reload
	ldr	w8, [x8]
	sub	x11, x29, #2168
	stur	w8, [x11, #-256]                // 4-byte Folded Spill
	subs	w8, w8, #5
	cset	w8, ge
	tbnz	w8, #0, .LBB1_250
	b	.LBB1_249
.LBB1_249:                              // %inner.loop.body183
                                        //   in Loop: Header=BB1_248 Depth=3
	sub	x8, x29, #264
	ldur	x11, [x8, #-256]                // 8-byte Folded Reload
	sub	x8, x29, #2168
	ldur	w8, [x8, #-256]                 // 4-byte Folded Reload
	add	w8, w8, #1
	str	w8, [x11]
	b	.LBB1_251
.LBB1_250:                              // %inner.loop.end184
                                        //   in Loop: Header=BB1_245 Depth=2
	b	.LBB1_245
.LBB1_251:                              // %inner.loop.cond185
                                        //   Parent Loop BB1_3 Depth=1
                                        //     Parent Loop BB1_245 Depth=2
                                        //       Parent Loop BB1_248 Depth=3
                                        // =>      This Loop Header: Depth=4
                                        //           Child Loop BB1_254 Depth 5
                                        //             Child Loop BB1_257 Depth 6
	sub	x8, x29, #256
	ldur	x8, [x8, #-256]                 // 8-byte Folded Reload
	ldr	w8, [x8]
	sub	x11, x29, #2172
	stur	w8, [x11, #-256]                // 4-byte Folded Spill
	subs	w8, w8, #5
	cset	w8, ge
	tbnz	w8, #0, .LBB1_253
	b	.LBB1_252
.LBB1_252:                              // %inner.loop.body186
                                        //   in Loop: Header=BB1_251 Depth=4
	sub	x8, x29, #256
	ldur	x11, [x8, #-256]                // 8-byte Folded Reload
	sub	x8, x29, #2172
	ldur	w8, [x8, #-256]                 // 4-byte Folded Reload
	add	w8, w8, #1
	str	w8, [x11]
	b	.LBB1_254
.LBB1_253:                              // %inner.loop.end187
                                        //   in Loop: Header=BB1_248 Depth=3
	b	.LBB1_248
.LBB1_254:                              // %inner.loop.cond188
                                        //   Parent Loop BB1_3 Depth=1
                                        //     Parent Loop BB1_245 Depth=2
                                        //       Parent Loop BB1_248 Depth=3
                                        //         Parent Loop BB1_251 Depth=4
                                        // =>        This Loop Header: Depth=5
                                        //             Child Loop BB1_257 Depth 6
	sub	x8, x29, #248
	ldur	x8, [x8, #-256]                 // 8-byte Folded Reload
	ldr	w8, [x8]
	sub	x11, x29, #2176
	stur	w8, [x11, #-256]                // 4-byte Folded Spill
	subs	w8, w8, #5
	cset	w8, ge
	tbnz	w8, #0, .LBB1_256
	b	.LBB1_255
.LBB1_255:                              // %inner.loop.body189
                                        //   in Loop: Header=BB1_254 Depth=5
	sub	x8, x29, #248
	ldur	x11, [x8, #-256]                // 8-byte Folded Reload
	sub	x8, x29, #2176
	ldur	w8, [x8, #-256]                 // 4-byte Folded Reload
	add	w8, w8, #1
	str	w8, [x11]
	b	.LBB1_257
.LBB1_256:                              // %inner.loop.end190
                                        //   in Loop: Header=BB1_251 Depth=4
	b	.LBB1_251
.LBB1_257:                              // %inner.loop.cond191
                                        //   Parent Loop BB1_3 Depth=1
                                        //     Parent Loop BB1_245 Depth=2
                                        //       Parent Loop BB1_248 Depth=3
                                        //         Parent Loop BB1_251 Depth=4
                                        //           Parent Loop BB1_254 Depth=5
                                        // =>          This Inner Loop Header: Depth=6
	sub	x8, x29, #240
	ldur	x8, [x8, #-256]                 // 8-byte Folded Reload
	ldr	w8, [x8]
	sub	x11, x29, #2180
	stur	w8, [x11, #-256]                // 4-byte Folded Spill
	subs	w8, w8, #5
	cset	w8, ge
	tbnz	w8, #0, .LBB1_259
	b	.LBB1_258
.LBB1_258:                              // %inner.loop.body192
                                        //   in Loop: Header=BB1_257 Depth=6
	sub	x8, x29, #232
	ldur	x8, [x8, #-256]                 // 8-byte Folded Reload
	sub	x11, x29, #240
	ldur	x12, [x11, #-256]               // 8-byte Folded Reload
	sub	x11, x29, #2180
	ldur	w11, [x11, #-256]               // 4-byte Folded Reload
	add	w11, w11, #1
	str	w11, [x12]
	ldr	w8, [x8]
	subs	w8, w8, #0
	cset	w8, gt
	tbnz	w8, #0, .LBB1_257
	b	.LBB1_244
.LBB1_259:                              // %inner.loop.end193
                                        //   in Loop: Header=BB1_254 Depth=5
	b	.LBB1_254
.LBB1_260:                              // %excute.cond201
                                        //   in Loop: Header=BB1_3 Depth=1
	sub	x8, x29, #288
	ldur	x11, [x8, #-256]                // 8-byte Folded Reload
	ldr	w8, [x11]
	add	w8, w8, #1
	str	w8, [x11]
	b	.LBB1_28
.LBB1_261:                              // %outer.loop.cond202
                                        //   Parent Loop BB1_3 Depth=1
                                        // =>  This Loop Header: Depth=2
                                        //       Child Loop BB1_264 Depth 3
                                        //         Child Loop BB1_267 Depth 4
                                        //           Child Loop BB1_270 Depth 5
                                        //             Child Loop BB1_273 Depth 6
	sub	x8, x29, #328
	ldur	x8, [x8, #-256]                 // 8-byte Folded Reload
	ldr	w8, [x8]
	sub	x11, x29, #2184
	stur	w8, [x11, #-256]                // 4-byte Folded Spill
	subs	w8, w8, #10
	cset	w8, ge
	tbnz	w8, #0, .LBB1_263
	b	.LBB1_262
.LBB1_262:                              // %outer.loop.body203
                                        //   in Loop: Header=BB1_261 Depth=2
	sub	x8, x29, #328
	ldur	x11, [x8, #-256]                // 8-byte Folded Reload
	sub	x8, x29, #2184
	ldur	w8, [x8, #-256]                 // 4-byte Folded Reload
	add	w8, w8, #1
	str	w8, [x11]
	b	.LBB1_264
.LBB1_263:                              // %outer.loop.end204
                                        //   in Loop: Header=BB1_3 Depth=1
	b	.LBB1_28
.LBB1_264:                              // %inner.loop.cond205
                                        //   Parent Loop BB1_3 Depth=1
                                        //     Parent Loop BB1_261 Depth=2
                                        // =>    This Loop Header: Depth=3
                                        //         Child Loop BB1_267 Depth 4
                                        //           Child Loop BB1_270 Depth 5
                                        //             Child Loop BB1_273 Depth 6
	sub	x8, x29, #320
	ldur	x8, [x8, #-256]                 // 8-byte Folded Reload
	ldr	w8, [x8]
	sub	x11, x29, #2188
	stur	w8, [x11, #-256]                // 4-byte Folded Spill
	subs	w8, w8, #5
	cset	w8, ge
	tbnz	w8, #0, .LBB1_266
	b	.LBB1_265
.LBB1_265:                              // %inner.loop.body206
                                        //   in Loop: Header=BB1_264 Depth=3
	sub	x8, x29, #320
	ldur	x11, [x8, #-256]                // 8-byte Folded Reload
	sub	x8, x29, #2188
	ldur	w8, [x8, #-256]                 // 4-byte Folded Reload
	add	w8, w8, #1
	str	w8, [x11]
	b	.LBB1_267
.LBB1_266:                              // %inner.loop.end207
                                        //   in Loop: Header=BB1_261 Depth=2
	b	.LBB1_261
.LBB1_267:                              // %inner.loop.cond208
                                        //   Parent Loop BB1_3 Depth=1
                                        //     Parent Loop BB1_261 Depth=2
                                        //       Parent Loop BB1_264 Depth=3
                                        // =>      This Loop Header: Depth=4
                                        //           Child Loop BB1_270 Depth 5
                                        //             Child Loop BB1_273 Depth 6
	sub	x8, x29, #312
	ldur	x8, [x8, #-256]                 // 8-byte Folded Reload
	ldr	w8, [x8]
	sub	x11, x29, #2192
	stur	w8, [x11, #-256]                // 4-byte Folded Spill
	subs	w8, w8, #5
	cset	w8, ge
	tbnz	w8, #0, .LBB1_269
	b	.LBB1_268
.LBB1_268:                              // %inner.loop.body209
                                        //   in Loop: Header=BB1_267 Depth=4
	sub	x8, x29, #312
	ldur	x11, [x8, #-256]                // 8-byte Folded Reload
	sub	x8, x29, #2192
	ldur	w8, [x8, #-256]                 // 4-byte Folded Reload
	add	w8, w8, #1
	str	w8, [x11]
	b	.LBB1_270
.LBB1_269:                              // %inner.loop.end210
                                        //   in Loop: Header=BB1_264 Depth=3
	b	.LBB1_264
.LBB1_270:                              // %inner.loop.cond211
                                        //   Parent Loop BB1_3 Depth=1
                                        //     Parent Loop BB1_261 Depth=2
                                        //       Parent Loop BB1_264 Depth=3
                                        //         Parent Loop BB1_267 Depth=4
                                        // =>        This Loop Header: Depth=5
                                        //             Child Loop BB1_273 Depth 6
	sub	x8, x29, #304
	ldur	x8, [x8, #-256]                 // 8-byte Folded Reload
	ldr	w8, [x8]
	sub	x11, x29, #2196
	stur	w8, [x11, #-256]                // 4-byte Folded Spill
	subs	w8, w8, #5
	cset	w8, ge
	tbnz	w8, #0, .LBB1_272
	b	.LBB1_271
.LBB1_271:                              // %inner.loop.body212
                                        //   in Loop: Header=BB1_270 Depth=5
	sub	x8, x29, #304
	ldur	x11, [x8, #-256]                // 8-byte Folded Reload
	sub	x8, x29, #2196
	ldur	w8, [x8, #-256]                 // 4-byte Folded Reload
	add	w8, w8, #1
	str	w8, [x11]
	b	.LBB1_273
.LBB1_272:                              // %inner.loop.end213
                                        //   in Loop: Header=BB1_267 Depth=4
	b	.LBB1_267
.LBB1_273:                              // %inner.loop.cond214
                                        //   Parent Loop BB1_3 Depth=1
                                        //     Parent Loop BB1_261 Depth=2
                                        //       Parent Loop BB1_264 Depth=3
                                        //         Parent Loop BB1_267 Depth=4
                                        //           Parent Loop BB1_270 Depth=5
                                        // =>          This Inner Loop Header: Depth=6
	sub	x8, x29, #296
	ldur	x8, [x8, #-256]                 // 8-byte Folded Reload
	ldr	w8, [x8]
	sub	x11, x29, #2200
	stur	w8, [x11, #-256]                // 4-byte Folded Spill
	subs	w8, w8, #5
	cset	w8, ge
	tbnz	w8, #0, .LBB1_275
	b	.LBB1_274
.LBB1_274:                              // %inner.loop.body215
                                        //   in Loop: Header=BB1_273 Depth=6
	sub	x8, x29, #288
	ldur	x8, [x8, #-256]                 // 8-byte Folded Reload
	sub	x11, x29, #296
	ldur	x12, [x11, #-256]               // 8-byte Folded Reload
	sub	x11, x29, #2200
	ldur	w11, [x11, #-256]               // 4-byte Folded Reload
	add	w11, w11, #1
	str	w11, [x12]
	ldr	w8, [x8]
	subs	w8, w8, #0
	cset	w8, gt
	tbnz	w8, #0, .LBB1_273
	b	.LBB1_260
.LBB1_275:                              // %inner.loop.end216
                                        //   in Loop: Header=BB1_270 Depth=5
	b	.LBB1_270
.LBB1_276:                              // %excute.cond224
                                        //   in Loop: Header=BB1_3 Depth=1
	sub	x8, x29, #344
	ldur	x11, [x8, #-256]                // 8-byte Folded Reload
	ldr	w8, [x11]
	add	w8, w8, #1
	str	w8, [x11]
	b	.LBB1_31
.LBB1_277:                              // %outer.loop.cond225
                                        //   Parent Loop BB1_3 Depth=1
                                        // =>  This Loop Header: Depth=2
                                        //       Child Loop BB1_280 Depth 3
                                        //         Child Loop BB1_283 Depth 4
                                        //           Child Loop BB1_286 Depth 5
                                        //             Child Loop BB1_289 Depth 6
	sub	x8, x29, #384
	ldur	x8, [x8, #-256]                 // 8-byte Folded Reload
	ldr	w8, [x8]
	sub	x11, x29, #2204
	stur	w8, [x11, #-256]                // 4-byte Folded Spill
	subs	w8, w8, #10
	cset	w8, ge
	tbnz	w8, #0, .LBB1_279
	b	.LBB1_278
.LBB1_278:                              // %outer.loop.body226
                                        //   in Loop: Header=BB1_277 Depth=2
	sub	x8, x29, #384
	ldur	x11, [x8, #-256]                // 8-byte Folded Reload
	sub	x8, x29, #2204
	ldur	w8, [x8, #-256]                 // 4-byte Folded Reload
	add	w8, w8, #1
	str	w8, [x11]
	b	.LBB1_280
.LBB1_279:                              // %outer.loop.end227
                                        //   in Loop: Header=BB1_3 Depth=1
	b	.LBB1_31
.LBB1_280:                              // %inner.loop.cond228
                                        //   Parent Loop BB1_3 Depth=1
                                        //     Parent Loop BB1_277 Depth=2
                                        // =>    This Loop Header: Depth=3
                                        //         Child Loop BB1_283 Depth 4
                                        //           Child Loop BB1_286 Depth 5
                                        //             Child Loop BB1_289 Depth 6
	sub	x8, x29, #376
	ldur	x8, [x8, #-256]                 // 8-byte Folded Reload
	ldr	w8, [x8]
	sub	x11, x29, #2208
	stur	w8, [x11, #-256]                // 4-byte Folded Spill
	subs	w8, w8, #5
	cset	w8, ge
	tbnz	w8, #0, .LBB1_282
	b	.LBB1_281
.LBB1_281:                              // %inner.loop.body229
                                        //   in Loop: Header=BB1_280 Depth=3
	sub	x8, x29, #376
	ldur	x11, [x8, #-256]                // 8-byte Folded Reload
	sub	x8, x29, #2208
	ldur	w8, [x8, #-256]                 // 4-byte Folded Reload
	add	w8, w8, #1
	str	w8, [x11]
	b	.LBB1_283
.LBB1_282:                              // %inner.loop.end230
                                        //   in Loop: Header=BB1_277 Depth=2
	b	.LBB1_277
.LBB1_283:                              // %inner.loop.cond231
                                        //   Parent Loop BB1_3 Depth=1
                                        //     Parent Loop BB1_277 Depth=2
                                        //       Parent Loop BB1_280 Depth=3
                                        // =>      This Loop Header: Depth=4
                                        //           Child Loop BB1_286 Depth 5
                                        //             Child Loop BB1_289 Depth 6
	sub	x8, x29, #368
	ldur	x8, [x8, #-256]                 // 8-byte Folded Reload
	ldr	w8, [x8]
	sub	x11, x29, #2212
	stur	w8, [x11, #-256]                // 4-byte Folded Spill
	subs	w8, w8, #5
	cset	w8, ge
	tbnz	w8, #0, .LBB1_285
	b	.LBB1_284
.LBB1_284:                              // %inner.loop.body232
                                        //   in Loop: Header=BB1_283 Depth=4
	sub	x8, x29, #368
	ldur	x11, [x8, #-256]                // 8-byte Folded Reload
	sub	x8, x29, #2212
	ldur	w8, [x8, #-256]                 // 4-byte Folded Reload
	add	w8, w8, #1
	str	w8, [x11]
	b	.LBB1_286
.LBB1_285:                              // %inner.loop.end233
                                        //   in Loop: Header=BB1_280 Depth=3
	b	.LBB1_280
.LBB1_286:                              // %inner.loop.cond234
                                        //   Parent Loop BB1_3 Depth=1
                                        //     Parent Loop BB1_277 Depth=2
                                        //       Parent Loop BB1_280 Depth=3
                                        //         Parent Loop BB1_283 Depth=4
                                        // =>        This Loop Header: Depth=5
                                        //             Child Loop BB1_289 Depth 6
	sub	x8, x29, #360
	ldur	x8, [x8, #-256]                 // 8-byte Folded Reload
	ldr	w8, [x8]
	sub	x11, x29, #2216
	stur	w8, [x11, #-256]                // 4-byte Folded Spill
	subs	w8, w8, #5
	cset	w8, ge
	tbnz	w8, #0, .LBB1_288
	b	.LBB1_287
.LBB1_287:                              // %inner.loop.body235
                                        //   in Loop: Header=BB1_286 Depth=5
	sub	x8, x29, #360
	ldur	x11, [x8, #-256]                // 8-byte Folded Reload
	sub	x8, x29, #2216
	ldur	w8, [x8, #-256]                 // 4-byte Folded Reload
	add	w8, w8, #1
	str	w8, [x11]
	b	.LBB1_289
.LBB1_288:                              // %inner.loop.end236
                                        //   in Loop: Header=BB1_283 Depth=4
	b	.LBB1_283
.LBB1_289:                              // %inner.loop.cond237
                                        //   Parent Loop BB1_3 Depth=1
                                        //     Parent Loop BB1_277 Depth=2
                                        //       Parent Loop BB1_280 Depth=3
                                        //         Parent Loop BB1_283 Depth=4
                                        //           Parent Loop BB1_286 Depth=5
                                        // =>          This Inner Loop Header: Depth=6
	sub	x8, x29, #352
	ldur	x8, [x8, #-256]                 // 8-byte Folded Reload
	ldr	w8, [x8]
	sub	x11, x29, #2220
	stur	w8, [x11, #-256]                // 4-byte Folded Spill
	subs	w8, w8, #5
	cset	w8, ge
	tbnz	w8, #0, .LBB1_291
	b	.LBB1_290
.LBB1_290:                              // %inner.loop.body238
                                        //   in Loop: Header=BB1_289 Depth=6
	sub	x8, x29, #344
	ldur	x8, [x8, #-256]                 // 8-byte Folded Reload
	sub	x11, x29, #352
	ldur	x12, [x11, #-256]               // 8-byte Folded Reload
	sub	x11, x29, #2220
	ldur	w11, [x11, #-256]               // 4-byte Folded Reload
	add	w11, w11, #1
	str	w11, [x12]
	ldr	w8, [x8]
	subs	w8, w8, #0
	cset	w8, gt
	tbnz	w8, #0, .LBB1_289
	b	.LBB1_276
.LBB1_291:                              // %inner.loop.end239
                                        //   in Loop: Header=BB1_286 Depth=5
	b	.LBB1_286
.LBB1_292:                              // %excute.cond247
                                        //   in Loop: Header=BB1_3 Depth=1
	sub	x8, x29, #400
	ldur	x11, [x8, #-256]                // 8-byte Folded Reload
	ldr	w8, [x11]
	add	w8, w8, #1
	str	w8, [x11]
	b	.LBB1_34
.LBB1_293:                              // %outer.loop.cond248
                                        //   Parent Loop BB1_3 Depth=1
                                        // =>  This Loop Header: Depth=2
                                        //       Child Loop BB1_296 Depth 3
                                        //         Child Loop BB1_299 Depth 4
                                        //           Child Loop BB1_302 Depth 5
                                        //             Child Loop BB1_305 Depth 6
	sub	x8, x29, #440
	ldur	x8, [x8, #-256]                 // 8-byte Folded Reload
	ldr	w8, [x8]
	sub	x11, x29, #2224
	stur	w8, [x11, #-256]                // 4-byte Folded Spill
	subs	w8, w8, #10
	cset	w8, ge
	tbnz	w8, #0, .LBB1_295
	b	.LBB1_294
.LBB1_294:                              // %outer.loop.body249
                                        //   in Loop: Header=BB1_293 Depth=2
	sub	x8, x29, #440
	ldur	x11, [x8, #-256]                // 8-byte Folded Reload
	sub	x8, x29, #2224
	ldur	w8, [x8, #-256]                 // 4-byte Folded Reload
	add	w8, w8, #1
	str	w8, [x11]
	b	.LBB1_296
.LBB1_295:                              // %outer.loop.end250
                                        //   in Loop: Header=BB1_3 Depth=1
	b	.LBB1_34
.LBB1_296:                              // %inner.loop.cond251
                                        //   Parent Loop BB1_3 Depth=1
                                        //     Parent Loop BB1_293 Depth=2
                                        // =>    This Loop Header: Depth=3
                                        //         Child Loop BB1_299 Depth 4
                                        //           Child Loop BB1_302 Depth 5
                                        //             Child Loop BB1_305 Depth 6
	sub	x8, x29, #432
	ldur	x8, [x8, #-256]                 // 8-byte Folded Reload
	ldr	w8, [x8]
	sub	x11, x29, #2228
	stur	w8, [x11, #-256]                // 4-byte Folded Spill
	subs	w8, w8, #5
	cset	w8, ge
	tbnz	w8, #0, .LBB1_298
	b	.LBB1_297
.LBB1_297:                              // %inner.loop.body252
                                        //   in Loop: Header=BB1_296 Depth=3
	sub	x8, x29, #432
	ldur	x11, [x8, #-256]                // 8-byte Folded Reload
	sub	x8, x29, #2228
	ldur	w8, [x8, #-256]                 // 4-byte Folded Reload
	add	w8, w8, #1
	str	w8, [x11]
	b	.LBB1_299
.LBB1_298:                              // %inner.loop.end253
                                        //   in Loop: Header=BB1_293 Depth=2
	b	.LBB1_293
.LBB1_299:                              // %inner.loop.cond254
                                        //   Parent Loop BB1_3 Depth=1
                                        //     Parent Loop BB1_293 Depth=2
                                        //       Parent Loop BB1_296 Depth=3
                                        // =>      This Loop Header: Depth=4
                                        //           Child Loop BB1_302 Depth 5
                                        //             Child Loop BB1_305 Depth 6
	sub	x8, x29, #424
	ldur	x8, [x8, #-256]                 // 8-byte Folded Reload
	ldr	w8, [x8]
	sub	x11, x29, #2232
	stur	w8, [x11, #-256]                // 4-byte Folded Spill
	subs	w8, w8, #5
	cset	w8, ge
	tbnz	w8, #0, .LBB1_301
	b	.LBB1_300
.LBB1_300:                              // %inner.loop.body255
                                        //   in Loop: Header=BB1_299 Depth=4
	sub	x8, x29, #424
	ldur	x11, [x8, #-256]                // 8-byte Folded Reload
	sub	x8, x29, #2232
	ldur	w8, [x8, #-256]                 // 4-byte Folded Reload
	add	w8, w8, #1
	str	w8, [x11]
	b	.LBB1_302
.LBB1_301:                              // %inner.loop.end256
                                        //   in Loop: Header=BB1_296 Depth=3
	b	.LBB1_296
.LBB1_302:                              // %inner.loop.cond257
                                        //   Parent Loop BB1_3 Depth=1
                                        //     Parent Loop BB1_293 Depth=2
                                        //       Parent Loop BB1_296 Depth=3
                                        //         Parent Loop BB1_299 Depth=4
                                        // =>        This Loop Header: Depth=5
                                        //             Child Loop BB1_305 Depth 6
	sub	x8, x29, #416
	ldur	x8, [x8, #-256]                 // 8-byte Folded Reload
	ldr	w8, [x8]
	sub	x11, x29, #2236
	stur	w8, [x11, #-256]                // 4-byte Folded Spill
	subs	w8, w8, #5
	cset	w8, ge
	tbnz	w8, #0, .LBB1_304
	b	.LBB1_303
.LBB1_303:                              // %inner.loop.body258
                                        //   in Loop: Header=BB1_302 Depth=5
	sub	x8, x29, #416
	ldur	x11, [x8, #-256]                // 8-byte Folded Reload
	sub	x8, x29, #2236
	ldur	w8, [x8, #-256]                 // 4-byte Folded Reload
	add	w8, w8, #1
	str	w8, [x11]
	b	.LBB1_305
.LBB1_304:                              // %inner.loop.end259
                                        //   in Loop: Header=BB1_299 Depth=4
	b	.LBB1_299
.LBB1_305:                              // %inner.loop.cond260
                                        //   Parent Loop BB1_3 Depth=1
                                        //     Parent Loop BB1_293 Depth=2
                                        //       Parent Loop BB1_296 Depth=3
                                        //         Parent Loop BB1_299 Depth=4
                                        //           Parent Loop BB1_302 Depth=5
                                        // =>          This Inner Loop Header: Depth=6
	sub	x8, x29, #408
	ldur	x8, [x8, #-256]                 // 8-byte Folded Reload
	ldr	w8, [x8]
	sub	x11, x29, #2240
	stur	w8, [x11, #-256]                // 4-byte Folded Spill
	subs	w8, w8, #5
	cset	w8, ge
	tbnz	w8, #0, .LBB1_307
	b	.LBB1_306
.LBB1_306:                              // %inner.loop.body261
                                        //   in Loop: Header=BB1_305 Depth=6
	sub	x8, x29, #400
	ldur	x8, [x8, #-256]                 // 8-byte Folded Reload
	sub	x11, x29, #408
	ldur	x12, [x11, #-256]               // 8-byte Folded Reload
	sub	x11, x29, #2240
	ldur	w11, [x11, #-256]               // 4-byte Folded Reload
	add	w11, w11, #1
	str	w11, [x12]
	ldr	w8, [x8]
	subs	w8, w8, #0
	cset	w8, gt
	tbnz	w8, #0, .LBB1_305
	b	.LBB1_292
.LBB1_307:                              // %inner.loop.end262
                                        //   in Loop: Header=BB1_302 Depth=5
	b	.LBB1_302
.LBB1_308:                              // %excute.cond270
                                        //   in Loop: Header=BB1_3 Depth=1
	sub	x8, x29, #456
	ldur	x11, [x8, #-256]                // 8-byte Folded Reload
	ldr	w8, [x11]
	add	w8, w8, #1
	str	w8, [x11]
	b	.LBB1_37
.LBB1_309:                              // %outer.loop.cond271
                                        //   Parent Loop BB1_3 Depth=1
                                        // =>  This Loop Header: Depth=2
                                        //       Child Loop BB1_312 Depth 3
                                        //         Child Loop BB1_315 Depth 4
                                        //           Child Loop BB1_318 Depth 5
                                        //             Child Loop BB1_321 Depth 6
	sub	x8, x29, #496
	ldur	x8, [x8, #-256]                 // 8-byte Folded Reload
	ldr	w8, [x8]
	sub	x11, x29, #2244
	stur	w8, [x11, #-256]                // 4-byte Folded Spill
	subs	w8, w8, #10
	cset	w8, ge
	tbnz	w8, #0, .LBB1_311
	b	.LBB1_310
.LBB1_310:                              // %outer.loop.body272
                                        //   in Loop: Header=BB1_309 Depth=2
	sub	x8, x29, #496
	ldur	x11, [x8, #-256]                // 8-byte Folded Reload
	sub	x8, x29, #2244
	ldur	w8, [x8, #-256]                 // 4-byte Folded Reload
	add	w8, w8, #1
	str	w8, [x11]
	b	.LBB1_312
.LBB1_311:                              // %outer.loop.end273
                                        //   in Loop: Header=BB1_3 Depth=1
	b	.LBB1_37
.LBB1_312:                              // %inner.loop.cond274
                                        //   Parent Loop BB1_3 Depth=1
                                        //     Parent Loop BB1_309 Depth=2
                                        // =>    This Loop Header: Depth=3
                                        //         Child Loop BB1_315 Depth 4
                                        //           Child Loop BB1_318 Depth 5
                                        //             Child Loop BB1_321 Depth 6
	sub	x8, x29, #488
	ldur	x8, [x8, #-256]                 // 8-byte Folded Reload
	ldr	w8, [x8]
	sub	x11, x29, #2248
	stur	w8, [x11, #-256]                // 4-byte Folded Spill
	subs	w8, w8, #5
	cset	w8, ge
	tbnz	w8, #0, .LBB1_314
	b	.LBB1_313
.LBB1_313:                              // %inner.loop.body275
                                        //   in Loop: Header=BB1_312 Depth=3
	sub	x8, x29, #488
	ldur	x11, [x8, #-256]                // 8-byte Folded Reload
	sub	x8, x29, #2248
	ldur	w8, [x8, #-256]                 // 4-byte Folded Reload
	add	w8, w8, #1
	str	w8, [x11]
	b	.LBB1_315
.LBB1_314:                              // %inner.loop.end276
                                        //   in Loop: Header=BB1_309 Depth=2
	b	.LBB1_309
.LBB1_315:                              // %inner.loop.cond277
                                        //   Parent Loop BB1_3 Depth=1
                                        //     Parent Loop BB1_309 Depth=2
                                        //       Parent Loop BB1_312 Depth=3
                                        // =>      This Loop Header: Depth=4
                                        //           Child Loop BB1_318 Depth 5
                                        //             Child Loop BB1_321 Depth 6
	sub	x8, x29, #480
	ldur	x8, [x8, #-256]                 // 8-byte Folded Reload
	ldr	w8, [x8]
	sub	x11, x29, #2252
	stur	w8, [x11, #-256]                // 4-byte Folded Spill
	subs	w8, w8, #5
	cset	w8, ge
	tbnz	w8, #0, .LBB1_317
	b	.LBB1_316
.LBB1_316:                              // %inner.loop.body278
                                        //   in Loop: Header=BB1_315 Depth=4
	sub	x8, x29, #480
	ldur	x11, [x8, #-256]                // 8-byte Folded Reload
	sub	x8, x29, #2252
	ldur	w8, [x8, #-256]                 // 4-byte Folded Reload
	add	w8, w8, #1
	str	w8, [x11]
	b	.LBB1_318
.LBB1_317:                              // %inner.loop.end279
                                        //   in Loop: Header=BB1_312 Depth=3
	b	.LBB1_312
.LBB1_318:                              // %inner.loop.cond280
                                        //   Parent Loop BB1_3 Depth=1
                                        //     Parent Loop BB1_309 Depth=2
                                        //       Parent Loop BB1_312 Depth=3
                                        //         Parent Loop BB1_315 Depth=4
                                        // =>        This Loop Header: Depth=5
                                        //             Child Loop BB1_321 Depth 6
	sub	x8, x29, #472
	ldur	x8, [x8, #-256]                 // 8-byte Folded Reload
	ldr	w8, [x8]
	sub	x11, x29, #2256
	stur	w8, [x11, #-256]                // 4-byte Folded Spill
	subs	w8, w8, #5
	cset	w8, ge
	tbnz	w8, #0, .LBB1_320
	b	.LBB1_319
.LBB1_319:                              // %inner.loop.body281
                                        //   in Loop: Header=BB1_318 Depth=5
	sub	x8, x29, #472
	ldur	x11, [x8, #-256]                // 8-byte Folded Reload
	sub	x8, x29, #2256
	ldur	w8, [x8, #-256]                 // 4-byte Folded Reload
	add	w8, w8, #1
	str	w8, [x11]
	b	.LBB1_321
.LBB1_320:                              // %inner.loop.end282
                                        //   in Loop: Header=BB1_315 Depth=4
	b	.LBB1_315
.LBB1_321:                              // %inner.loop.cond283
                                        //   Parent Loop BB1_3 Depth=1
                                        //     Parent Loop BB1_309 Depth=2
                                        //       Parent Loop BB1_312 Depth=3
                                        //         Parent Loop BB1_315 Depth=4
                                        //           Parent Loop BB1_318 Depth=5
                                        // =>          This Inner Loop Header: Depth=6
	sub	x8, x29, #464
	ldur	x8, [x8, #-256]                 // 8-byte Folded Reload
	ldr	w8, [x8]
	sub	x11, x29, #2260
	stur	w8, [x11, #-256]                // 4-byte Folded Spill
	subs	w8, w8, #5
	cset	w8, ge
	tbnz	w8, #0, .LBB1_323
	b	.LBB1_322
.LBB1_322:                              // %inner.loop.body284
                                        //   in Loop: Header=BB1_321 Depth=6
	sub	x8, x29, #456
	ldur	x8, [x8, #-256]                 // 8-byte Folded Reload
	sub	x11, x29, #464
	ldur	x12, [x11, #-256]               // 8-byte Folded Reload
	sub	x11, x29, #2260
	ldur	w11, [x11, #-256]               // 4-byte Folded Reload
	add	w11, w11, #1
	str	w11, [x12]
	ldr	w8, [x8]
	subs	w8, w8, #0
	cset	w8, gt
	tbnz	w8, #0, .LBB1_321
	b	.LBB1_308
.LBB1_323:                              // %inner.loop.end285
                                        //   in Loop: Header=BB1_318 Depth=5
	b	.LBB1_318
.LBB1_324:                              // %excute.cond293
                                        //   in Loop: Header=BB1_3 Depth=1
	sub	x8, x29, #504
	ldur	x11, [x8, #-256]                // 8-byte Folded Reload
	ldr	w8, [x11]
	add	w8, w8, #1
	str	w8, [x11]
	b	.LBB1_40
.LBB1_325:                              // %outer.loop.cond294
                                        //   Parent Loop BB1_3 Depth=1
                                        // =>  This Loop Header: Depth=2
                                        //       Child Loop BB1_328 Depth 3
                                        //         Child Loop BB1_331 Depth 4
                                        //           Child Loop BB1_334 Depth 5
                                        //             Child Loop BB1_337 Depth 6
	sub	x8, x29, #544
	ldur	x8, [x8, #-256]                 // 8-byte Folded Reload
	ldr	w8, [x8]
	sub	x11, x29, #2264
	stur	w8, [x11, #-256]                // 4-byte Folded Spill
	subs	w8, w8, #10
	cset	w8, ge
	tbnz	w8, #0, .LBB1_327
	b	.LBB1_326
.LBB1_326:                              // %outer.loop.body295
                                        //   in Loop: Header=BB1_325 Depth=2
	sub	x8, x29, #544
	ldur	x11, [x8, #-256]                // 8-byte Folded Reload
	sub	x8, x29, #2264
	ldur	w8, [x8, #-256]                 // 4-byte Folded Reload
	add	w8, w8, #1
	str	w8, [x11]
	b	.LBB1_328
.LBB1_327:                              // %outer.loop.end296
                                        //   in Loop: Header=BB1_3 Depth=1
	b	.LBB1_40
.LBB1_328:                              // %inner.loop.cond297
                                        //   Parent Loop BB1_3 Depth=1
                                        //     Parent Loop BB1_325 Depth=2
                                        // =>    This Loop Header: Depth=3
                                        //         Child Loop BB1_331 Depth 4
                                        //           Child Loop BB1_334 Depth 5
                                        //             Child Loop BB1_337 Depth 6
	sub	x8, x29, #536
	ldur	x8, [x8, #-256]                 // 8-byte Folded Reload
	ldr	w8, [x8]
	sub	x11, x29, #2268
	stur	w8, [x11, #-256]                // 4-byte Folded Spill
	subs	w8, w8, #5
	cset	w8, ge
	tbnz	w8, #0, .LBB1_330
	b	.LBB1_329
.LBB1_329:                              // %inner.loop.body298
                                        //   in Loop: Header=BB1_328 Depth=3
	sub	x8, x29, #536
	ldur	x11, [x8, #-256]                // 8-byte Folded Reload
	sub	x8, x29, #2268
	ldur	w8, [x8, #-256]                 // 4-byte Folded Reload
	add	w8, w8, #1
	str	w8, [x11]
	b	.LBB1_331
.LBB1_330:                              // %inner.loop.end299
                                        //   in Loop: Header=BB1_325 Depth=2
	b	.LBB1_325
.LBB1_331:                              // %inner.loop.cond300
                                        //   Parent Loop BB1_3 Depth=1
                                        //     Parent Loop BB1_325 Depth=2
                                        //       Parent Loop BB1_328 Depth=3
                                        // =>      This Loop Header: Depth=4
                                        //           Child Loop BB1_334 Depth 5
                                        //             Child Loop BB1_337 Depth 6
	sub	x8, x29, #528
	ldur	x8, [x8, #-256]                 // 8-byte Folded Reload
	ldr	w8, [x8]
	sub	x11, x29, #2272
	stur	w8, [x11, #-256]                // 4-byte Folded Spill
	subs	w8, w8, #5
	cset	w8, ge
	tbnz	w8, #0, .LBB1_333
	b	.LBB1_332
.LBB1_332:                              // %inner.loop.body301
                                        //   in Loop: Header=BB1_331 Depth=4
	sub	x8, x29, #528
	ldur	x11, [x8, #-256]                // 8-byte Folded Reload
	sub	x8, x29, #2272
	ldur	w8, [x8, #-256]                 // 4-byte Folded Reload
	add	w8, w8, #1
	str	w8, [x11]
	b	.LBB1_334
.LBB1_333:                              // %inner.loop.end302
                                        //   in Loop: Header=BB1_328 Depth=3
	b	.LBB1_328
.LBB1_334:                              // %inner.loop.cond303
                                        //   Parent Loop BB1_3 Depth=1
                                        //     Parent Loop BB1_325 Depth=2
                                        //       Parent Loop BB1_328 Depth=3
                                        //         Parent Loop BB1_331 Depth=4
                                        // =>        This Loop Header: Depth=5
                                        //             Child Loop BB1_337 Depth 6
	sub	x8, x29, #520
	ldur	x8, [x8, #-256]                 // 8-byte Folded Reload
	ldr	w8, [x8]
	sub	x11, x29, #2276
	stur	w8, [x11, #-256]                // 4-byte Folded Spill
	subs	w8, w8, #5
	cset	w8, ge
	tbnz	w8, #0, .LBB1_336
	b	.LBB1_335
.LBB1_335:                              // %inner.loop.body304
                                        //   in Loop: Header=BB1_334 Depth=5
	sub	x8, x29, #520
	ldur	x11, [x8, #-256]                // 8-byte Folded Reload
	sub	x8, x29, #2276
	ldur	w8, [x8, #-256]                 // 4-byte Folded Reload
	add	w8, w8, #1
	str	w8, [x11]
	b	.LBB1_337
.LBB1_336:                              // %inner.loop.end305
                                        //   in Loop: Header=BB1_331 Depth=4
	b	.LBB1_331
.LBB1_337:                              // %inner.loop.cond306
                                        //   Parent Loop BB1_3 Depth=1
                                        //     Parent Loop BB1_325 Depth=2
                                        //       Parent Loop BB1_328 Depth=3
                                        //         Parent Loop BB1_331 Depth=4
                                        //           Parent Loop BB1_334 Depth=5
                                        // =>          This Inner Loop Header: Depth=6
	sub	x8, x29, #512
	ldur	x8, [x8, #-256]                 // 8-byte Folded Reload
	ldr	w8, [x8]
	sub	x11, x29, #2280
	stur	w8, [x11, #-256]                // 4-byte Folded Spill
	subs	w8, w8, #5
	cset	w8, ge
	tbnz	w8, #0, .LBB1_339
	b	.LBB1_338
.LBB1_338:                              // %inner.loop.body307
                                        //   in Loop: Header=BB1_337 Depth=6
	sub	x8, x29, #504
	ldur	x8, [x8, #-256]                 // 8-byte Folded Reload
	sub	x11, x29, #512
	ldur	x12, [x11, #-256]               // 8-byte Folded Reload
	sub	x11, x29, #2280
	ldur	w11, [x11, #-256]               // 4-byte Folded Reload
	add	w11, w11, #1
	str	w11, [x12]
	ldr	w8, [x8]
	subs	w8, w8, #0
	cset	w8, gt
	tbnz	w8, #0, .LBB1_337
	b	.LBB1_324
.LBB1_339:                              // %inner.loop.end308
                                        //   in Loop: Header=BB1_334 Depth=5
	b	.LBB1_334
.LBB1_340:                              // %excute.cond316
                                        //   in Loop: Header=BB1_3 Depth=1
	sub	x8, x29, #560
	ldur	x11, [x8, #-256]                // 8-byte Folded Reload
	ldr	w8, [x11]
	add	w8, w8, #1
	str	w8, [x11]
	b	.LBB1_43
.LBB1_341:                              // %outer.loop.cond317
                                        //   Parent Loop BB1_3 Depth=1
                                        // =>  This Loop Header: Depth=2
                                        //       Child Loop BB1_344 Depth 3
                                        //         Child Loop BB1_347 Depth 4
                                        //           Child Loop BB1_350 Depth 5
                                        //             Child Loop BB1_353 Depth 6
	sub	x8, x29, #600
	ldur	x8, [x8, #-256]                 // 8-byte Folded Reload
	ldr	w8, [x8]
	sub	x11, x29, #2284
	stur	w8, [x11, #-256]                // 4-byte Folded Spill
	subs	w8, w8, #10
	cset	w8, ge
	tbnz	w8, #0, .LBB1_343
	b	.LBB1_342
.LBB1_342:                              // %outer.loop.body318
                                        //   in Loop: Header=BB1_341 Depth=2
	sub	x8, x29, #600
	ldur	x11, [x8, #-256]                // 8-byte Folded Reload
	sub	x8, x29, #2284
	ldur	w8, [x8, #-256]                 // 4-byte Folded Reload
	add	w8, w8, #1
	str	w8, [x11]
	b	.LBB1_344
.LBB1_343:                              // %outer.loop.end319
                                        //   in Loop: Header=BB1_3 Depth=1
	b	.LBB1_43
.LBB1_344:                              // %inner.loop.cond320
                                        //   Parent Loop BB1_3 Depth=1
                                        //     Parent Loop BB1_341 Depth=2
                                        // =>    This Loop Header: Depth=3
                                        //         Child Loop BB1_347 Depth 4
                                        //           Child Loop BB1_350 Depth 5
                                        //             Child Loop BB1_353 Depth 6
	sub	x8, x29, #592
	ldur	x8, [x8, #-256]                 // 8-byte Folded Reload
	ldr	w8, [x8]
	sub	x11, x29, #2288
	stur	w8, [x11, #-256]                // 4-byte Folded Spill
	subs	w8, w8, #5
	cset	w8, ge
	tbnz	w8, #0, .LBB1_346
	b	.LBB1_345
.LBB1_345:                              // %inner.loop.body321
                                        //   in Loop: Header=BB1_344 Depth=3
	sub	x8, x29, #592
	ldur	x11, [x8, #-256]                // 8-byte Folded Reload
	sub	x8, x29, #2288
	ldur	w8, [x8, #-256]                 // 4-byte Folded Reload
	add	w8, w8, #1
	str	w8, [x11]
	b	.LBB1_347
.LBB1_346:                              // %inner.loop.end322
                                        //   in Loop: Header=BB1_341 Depth=2
	b	.LBB1_341
.LBB1_347:                              // %inner.loop.cond323
                                        //   Parent Loop BB1_3 Depth=1
                                        //     Parent Loop BB1_341 Depth=2
                                        //       Parent Loop BB1_344 Depth=3
                                        // =>      This Loop Header: Depth=4
                                        //           Child Loop BB1_350 Depth 5
                                        //             Child Loop BB1_353 Depth 6
	sub	x8, x29, #584
	ldur	x8, [x8, #-256]                 // 8-byte Folded Reload
	ldr	w8, [x8]
	sub	x11, x29, #2292
	stur	w8, [x11, #-256]                // 4-byte Folded Spill
	subs	w8, w8, #5
	cset	w8, ge
	tbnz	w8, #0, .LBB1_349
	b	.LBB1_348
.LBB1_348:                              // %inner.loop.body324
                                        //   in Loop: Header=BB1_347 Depth=4
	sub	x8, x29, #584
	ldur	x11, [x8, #-256]                // 8-byte Folded Reload
	sub	x8, x29, #2292
	ldur	w8, [x8, #-256]                 // 4-byte Folded Reload
	add	w8, w8, #1
	str	w8, [x11]
	b	.LBB1_350
.LBB1_349:                              // %inner.loop.end325
                                        //   in Loop: Header=BB1_344 Depth=3
	b	.LBB1_344
.LBB1_350:                              // %inner.loop.cond326
                                        //   Parent Loop BB1_3 Depth=1
                                        //     Parent Loop BB1_341 Depth=2
                                        //       Parent Loop BB1_344 Depth=3
                                        //         Parent Loop BB1_347 Depth=4
                                        // =>        This Loop Header: Depth=5
                                        //             Child Loop BB1_353 Depth 6
	sub	x8, x29, #576
	ldur	x8, [x8, #-256]                 // 8-byte Folded Reload
	ldr	w8, [x8]
	sub	x11, x29, #2296
	stur	w8, [x11, #-256]                // 4-byte Folded Spill
	subs	w8, w8, #5
	cset	w8, ge
	tbnz	w8, #0, .LBB1_352
	b	.LBB1_351
.LBB1_351:                              // %inner.loop.body327
                                        //   in Loop: Header=BB1_350 Depth=5
	sub	x8, x29, #576
	ldur	x11, [x8, #-256]                // 8-byte Folded Reload
	sub	x8, x29, #2296
	ldur	w8, [x8, #-256]                 // 4-byte Folded Reload
	add	w8, w8, #1
	str	w8, [x11]
	b	.LBB1_353
.LBB1_352:                              // %inner.loop.end328
                                        //   in Loop: Header=BB1_347 Depth=4
	b	.LBB1_347
.LBB1_353:                              // %inner.loop.cond329
                                        //   Parent Loop BB1_3 Depth=1
                                        //     Parent Loop BB1_341 Depth=2
                                        //       Parent Loop BB1_344 Depth=3
                                        //         Parent Loop BB1_347 Depth=4
                                        //           Parent Loop BB1_350 Depth=5
                                        // =>          This Inner Loop Header: Depth=6
	sub	x8, x29, #568
	ldur	x8, [x8, #-256]                 // 8-byte Folded Reload
	ldr	w8, [x8]
	sub	x11, x29, #2300
	stur	w8, [x11, #-256]                // 4-byte Folded Spill
	subs	w8, w8, #5
	cset	w8, ge
	tbnz	w8, #0, .LBB1_355
	b	.LBB1_354
.LBB1_354:                              // %inner.loop.body330
                                        //   in Loop: Header=BB1_353 Depth=6
	sub	x8, x29, #560
	ldur	x8, [x8, #-256]                 // 8-byte Folded Reload
	sub	x11, x29, #568
	ldur	x12, [x11, #-256]               // 8-byte Folded Reload
	sub	x11, x29, #2300
	ldur	w11, [x11, #-256]               // 4-byte Folded Reload
	add	w11, w11, #1
	str	w11, [x12]
	ldr	w8, [x8]
	subs	w8, w8, #0
	cset	w8, gt
	tbnz	w8, #0, .LBB1_353
	b	.LBB1_340
.LBB1_355:                              // %inner.loop.end331
                                        //   in Loop: Header=BB1_350 Depth=5
	b	.LBB1_350
.LBB1_356:                              // %excute.cond339
                                        //   in Loop: Header=BB1_3 Depth=1
	sub	x8, x29, #608
	ldur	x11, [x8, #-256]                // 8-byte Folded Reload
	ldr	w8, [x11]
	add	w8, w8, #1
	str	w8, [x11]
	b	.LBB1_46
.LBB1_357:                              // %outer.loop.cond340
                                        //   Parent Loop BB1_3 Depth=1
                                        // =>  This Loop Header: Depth=2
                                        //       Child Loop BB1_360 Depth 3
                                        //         Child Loop BB1_363 Depth 4
                                        //           Child Loop BB1_366 Depth 5
                                        //             Child Loop BB1_369 Depth 6
	sub	x8, x29, #648
	ldur	x8, [x8, #-256]                 // 8-byte Folded Reload
	ldr	w8, [x8]
	sub	x11, x29, #2304
	stur	w8, [x11, #-256]                // 4-byte Folded Spill
	subs	w8, w8, #10
	cset	w8, ge
	tbnz	w8, #0, .LBB1_359
	b	.LBB1_358
.LBB1_358:                              // %outer.loop.body341
                                        //   in Loop: Header=BB1_357 Depth=2
	sub	x8, x29, #648
	ldur	x11, [x8, #-256]                // 8-byte Folded Reload
	sub	x8, x29, #2304
	ldur	w8, [x8, #-256]                 // 4-byte Folded Reload
	add	w8, w8, #1
	str	w8, [x11]
	b	.LBB1_360
.LBB1_359:                              // %outer.loop.end342
                                        //   in Loop: Header=BB1_3 Depth=1
	b	.LBB1_46
.LBB1_360:                              // %inner.loop.cond343
                                        //   Parent Loop BB1_3 Depth=1
                                        //     Parent Loop BB1_357 Depth=2
                                        // =>    This Loop Header: Depth=3
                                        //         Child Loop BB1_363 Depth 4
                                        //           Child Loop BB1_366 Depth 5
                                        //             Child Loop BB1_369 Depth 6
	sub	x8, x29, #640
	ldur	x8, [x8, #-256]                 // 8-byte Folded Reload
	ldr	w8, [x8]
	sub	x11, x29, #2308
	stur	w8, [x11, #-256]                // 4-byte Folded Spill
	subs	w8, w8, #5
	cset	w8, ge
	tbnz	w8, #0, .LBB1_362
	b	.LBB1_361
.LBB1_361:                              // %inner.loop.body344
                                        //   in Loop: Header=BB1_360 Depth=3
	sub	x8, x29, #640
	ldur	x11, [x8, #-256]                // 8-byte Folded Reload
	sub	x8, x29, #2308
	ldur	w8, [x8, #-256]                 // 4-byte Folded Reload
	add	w8, w8, #1
	str	w8, [x11]
	b	.LBB1_363
.LBB1_362:                              // %inner.loop.end345
                                        //   in Loop: Header=BB1_357 Depth=2
	b	.LBB1_357
.LBB1_363:                              // %inner.loop.cond346
                                        //   Parent Loop BB1_3 Depth=1
                                        //     Parent Loop BB1_357 Depth=2
                                        //       Parent Loop BB1_360 Depth=3
                                        // =>      This Loop Header: Depth=4
                                        //           Child Loop BB1_366 Depth 5
                                        //             Child Loop BB1_369 Depth 6
	sub	x8, x29, #632
	ldur	x8, [x8, #-256]                 // 8-byte Folded Reload
	ldr	w8, [x8]
	sub	x11, x29, #2312
	stur	w8, [x11, #-256]                // 4-byte Folded Spill
	subs	w8, w8, #5
	cset	w8, ge
	tbnz	w8, #0, .LBB1_365
	b	.LBB1_364
.LBB1_364:                              // %inner.loop.body347
                                        //   in Loop: Header=BB1_363 Depth=4
	sub	x8, x29, #632
	ldur	x11, [x8, #-256]                // 8-byte Folded Reload
	sub	x8, x29, #2312
	ldur	w8, [x8, #-256]                 // 4-byte Folded Reload
	add	w8, w8, #1
	str	w8, [x11]
	b	.LBB1_366
.LBB1_365:                              // %inner.loop.end348
                                        //   in Loop: Header=BB1_360 Depth=3
	b	.LBB1_360
.LBB1_366:                              // %inner.loop.cond349
                                        //   Parent Loop BB1_3 Depth=1
                                        //     Parent Loop BB1_357 Depth=2
                                        //       Parent Loop BB1_360 Depth=3
                                        //         Parent Loop BB1_363 Depth=4
                                        // =>        This Loop Header: Depth=5
                                        //             Child Loop BB1_369 Depth 6
	sub	x8, x29, #624
	ldur	x8, [x8, #-256]                 // 8-byte Folded Reload
	ldr	w8, [x8]
	sub	x11, x29, #2316
	stur	w8, [x11, #-256]                // 4-byte Folded Spill
	subs	w8, w8, #5
	cset	w8, ge
	tbnz	w8, #0, .LBB1_368
	b	.LBB1_367
.LBB1_367:                              // %inner.loop.body350
                                        //   in Loop: Header=BB1_366 Depth=5
	sub	x8, x29, #624
	ldur	x11, [x8, #-256]                // 8-byte Folded Reload
	sub	x8, x29, #2316
	ldur	w8, [x8, #-256]                 // 4-byte Folded Reload
	add	w8, w8, #1
	str	w8, [x11]
	b	.LBB1_369
.LBB1_368:                              // %inner.loop.end351
                                        //   in Loop: Header=BB1_363 Depth=4
	b	.LBB1_363
.LBB1_369:                              // %inner.loop.cond352
                                        //   Parent Loop BB1_3 Depth=1
                                        //     Parent Loop BB1_357 Depth=2
                                        //       Parent Loop BB1_360 Depth=3
                                        //         Parent Loop BB1_363 Depth=4
                                        //           Parent Loop BB1_366 Depth=5
                                        // =>          This Inner Loop Header: Depth=6
	sub	x8, x29, #616
	ldur	x8, [x8, #-256]                 // 8-byte Folded Reload
	ldr	w8, [x8]
	sub	x11, x29, #2320
	stur	w8, [x11, #-256]                // 4-byte Folded Spill
	subs	w8, w8, #5
	cset	w8, ge
	tbnz	w8, #0, .LBB1_371
	b	.LBB1_370
.LBB1_370:                              // %inner.loop.body353
                                        //   in Loop: Header=BB1_369 Depth=6
	sub	x8, x29, #608
	ldur	x8, [x8, #-256]                 // 8-byte Folded Reload
	sub	x11, x29, #616
	ldur	x12, [x11, #-256]               // 8-byte Folded Reload
	sub	x11, x29, #2320
	ldur	w11, [x11, #-256]               // 4-byte Folded Reload
	add	w11, w11, #1
	str	w11, [x12]
	ldr	w8, [x8]
	subs	w8, w8, #0
	cset	w8, gt
	tbnz	w8, #0, .LBB1_369
	b	.LBB1_356
.LBB1_371:                              // %inner.loop.end354
                                        //   in Loop: Header=BB1_366 Depth=5
	b	.LBB1_366
.LBB1_372:                              // %excute.cond362
                                        //   in Loop: Header=BB1_3 Depth=1
	sub	x8, x29, #656
	ldur	x11, [x8, #-256]                // 8-byte Folded Reload
	ldr	w8, [x11]
	add	w8, w8, #1
	str	w8, [x11]
	b	.LBB1_50
.LBB1_373:                              // %outer.loop.cond363
                                        //   Parent Loop BB1_3 Depth=1
                                        // =>  This Loop Header: Depth=2
                                        //       Child Loop BB1_376 Depth 3
                                        //         Child Loop BB1_379 Depth 4
                                        //           Child Loop BB1_382 Depth 5
                                        //             Child Loop BB1_385 Depth 6
	sub	x8, x29, #696
	ldur	x8, [x8, #-256]                 // 8-byte Folded Reload
	ldr	w8, [x8]
	sub	x11, x29, #2324
	stur	w8, [x11, #-256]                // 4-byte Folded Spill
	subs	w8, w8, #10
	cset	w8, ge
	tbnz	w8, #0, .LBB1_375
	b	.LBB1_374
.LBB1_374:                              // %outer.loop.body364
                                        //   in Loop: Header=BB1_373 Depth=2
	sub	x8, x29, #696
	ldur	x11, [x8, #-256]                // 8-byte Folded Reload
	sub	x8, x29, #2324
	ldur	w8, [x8, #-256]                 // 4-byte Folded Reload
	add	w8, w8, #1
	str	w8, [x11]
	b	.LBB1_376
.LBB1_375:                              // %outer.loop.end365
                                        //   in Loop: Header=BB1_3 Depth=1
	b	.LBB1_50
.LBB1_376:                              // %inner.loop.cond366
                                        //   Parent Loop BB1_3 Depth=1
                                        //     Parent Loop BB1_373 Depth=2
                                        // =>    This Loop Header: Depth=3
                                        //         Child Loop BB1_379 Depth 4
                                        //           Child Loop BB1_382 Depth 5
                                        //             Child Loop BB1_385 Depth 6
	sub	x8, x29, #688
	ldur	x8, [x8, #-256]                 // 8-byte Folded Reload
	ldr	w8, [x8]
	sub	x11, x29, #2328
	stur	w8, [x11, #-256]                // 4-byte Folded Spill
	subs	w8, w8, #5
	cset	w8, ge
	tbnz	w8, #0, .LBB1_378
	b	.LBB1_377
.LBB1_377:                              // %inner.loop.body367
                                        //   in Loop: Header=BB1_376 Depth=3
	sub	x8, x29, #688
	ldur	x11, [x8, #-256]                // 8-byte Folded Reload
	sub	x8, x29, #2328
	ldur	w8, [x8, #-256]                 // 4-byte Folded Reload
	add	w8, w8, #1
	str	w8, [x11]
	b	.LBB1_379
.LBB1_378:                              // %inner.loop.end368
                                        //   in Loop: Header=BB1_373 Depth=2
	b	.LBB1_373
.LBB1_379:                              // %inner.loop.cond369
                                        //   Parent Loop BB1_3 Depth=1
                                        //     Parent Loop BB1_373 Depth=2
                                        //       Parent Loop BB1_376 Depth=3
                                        // =>      This Loop Header: Depth=4
                                        //           Child Loop BB1_382 Depth 5
                                        //             Child Loop BB1_385 Depth 6
	sub	x8, x29, #680
	ldur	x8, [x8, #-256]                 // 8-byte Folded Reload
	ldr	w8, [x8]
	sub	x11, x29, #2332
	stur	w8, [x11, #-256]                // 4-byte Folded Spill
	subs	w8, w8, #5
	cset	w8, ge
	tbnz	w8, #0, .LBB1_381
	b	.LBB1_380
.LBB1_380:                              // %inner.loop.body370
                                        //   in Loop: Header=BB1_379 Depth=4
	sub	x8, x29, #680
	ldur	x11, [x8, #-256]                // 8-byte Folded Reload
	sub	x8, x29, #2332
	ldur	w8, [x8, #-256]                 // 4-byte Folded Reload
	add	w8, w8, #1
	str	w8, [x11]
	b	.LBB1_382
.LBB1_381:                              // %inner.loop.end371
                                        //   in Loop: Header=BB1_376 Depth=3
	b	.LBB1_376
.LBB1_382:                              // %inner.loop.cond372
                                        //   Parent Loop BB1_3 Depth=1
                                        //     Parent Loop BB1_373 Depth=2
                                        //       Parent Loop BB1_376 Depth=3
                                        //         Parent Loop BB1_379 Depth=4
                                        // =>        This Loop Header: Depth=5
                                        //             Child Loop BB1_385 Depth 6
	sub	x8, x29, #672
	ldur	x8, [x8, #-256]                 // 8-byte Folded Reload
	ldr	w8, [x8]
	sub	x11, x29, #2336
	stur	w8, [x11, #-256]                // 4-byte Folded Spill
	subs	w8, w8, #5
	cset	w8, ge
	tbnz	w8, #0, .LBB1_384
	b	.LBB1_383
.LBB1_383:                              // %inner.loop.body373
                                        //   in Loop: Header=BB1_382 Depth=5
	sub	x8, x29, #672
	ldur	x11, [x8, #-256]                // 8-byte Folded Reload
	sub	x8, x29, #2336
	ldur	w8, [x8, #-256]                 // 4-byte Folded Reload
	add	w8, w8, #1
	str	w8, [x11]
	b	.LBB1_385
.LBB1_384:                              // %inner.loop.end374
                                        //   in Loop: Header=BB1_379 Depth=4
	b	.LBB1_379
.LBB1_385:                              // %inner.loop.cond375
                                        //   Parent Loop BB1_3 Depth=1
                                        //     Parent Loop BB1_373 Depth=2
                                        //       Parent Loop BB1_376 Depth=3
                                        //         Parent Loop BB1_379 Depth=4
                                        //           Parent Loop BB1_382 Depth=5
                                        // =>          This Inner Loop Header: Depth=6
	sub	x8, x29, #664
	ldur	x8, [x8, #-256]                 // 8-byte Folded Reload
	ldr	w8, [x8]
	sub	x11, x29, #2340
	stur	w8, [x11, #-256]                // 4-byte Folded Spill
	subs	w8, w8, #5
	cset	w8, ge
	tbnz	w8, #0, .LBB1_387
	b	.LBB1_386
.LBB1_386:                              // %inner.loop.body376
                                        //   in Loop: Header=BB1_385 Depth=6
	sub	x8, x29, #656
	ldur	x8, [x8, #-256]                 // 8-byte Folded Reload
	sub	x11, x29, #664
	ldur	x12, [x11, #-256]               // 8-byte Folded Reload
	sub	x11, x29, #2340
	ldur	w11, [x11, #-256]               // 4-byte Folded Reload
	add	w11, w11, #1
	str	w11, [x12]
	ldr	w8, [x8]
	subs	w8, w8, #0
	cset	w8, gt
	tbnz	w8, #0, .LBB1_385
	b	.LBB1_372
.LBB1_387:                              // %inner.loop.end377
                                        //   in Loop: Header=BB1_382 Depth=5
	b	.LBB1_382
.LBB1_388:                              // %excute.cond385
                                        //   in Loop: Header=BB1_3 Depth=1
	sub	x8, x29, #720
	ldur	x11, [x8, #-256]                // 8-byte Folded Reload
	ldr	w8, [x11]
	add	w8, w8, #1
	str	w8, [x11]
	b	.LBB1_53
.LBB1_389:                              // %outer.loop.cond386
                                        //   Parent Loop BB1_3 Depth=1
                                        // =>  This Loop Header: Depth=2
                                        //       Child Loop BB1_392 Depth 3
                                        //         Child Loop BB1_395 Depth 4
                                        //           Child Loop BB1_398 Depth 5
                                        //             Child Loop BB1_401 Depth 6
	sub	x8, x29, #760
	ldur	x8, [x8, #-256]                 // 8-byte Folded Reload
	ldr	w8, [x8]
	sub	x11, x29, #2344
	stur	w8, [x11, #-256]                // 4-byte Folded Spill
	subs	w8, w8, #10
	cset	w8, ge
	tbnz	w8, #0, .LBB1_391
	b	.LBB1_390
.LBB1_390:                              // %outer.loop.body387
                                        //   in Loop: Header=BB1_389 Depth=2
	sub	x8, x29, #760
	ldur	x11, [x8, #-256]                // 8-byte Folded Reload
	sub	x8, x29, #2344
	ldur	w8, [x8, #-256]                 // 4-byte Folded Reload
	add	w8, w8, #1
	str	w8, [x11]
	b	.LBB1_392
.LBB1_391:                              // %outer.loop.end388
                                        //   in Loop: Header=BB1_3 Depth=1
	b	.LBB1_53
.LBB1_392:                              // %inner.loop.cond389
                                        //   Parent Loop BB1_3 Depth=1
                                        //     Parent Loop BB1_389 Depth=2
                                        // =>    This Loop Header: Depth=3
                                        //         Child Loop BB1_395 Depth 4
                                        //           Child Loop BB1_398 Depth 5
                                        //             Child Loop BB1_401 Depth 6
	sub	x8, x29, #752
	ldur	x8, [x8, #-256]                 // 8-byte Folded Reload
	ldr	w8, [x8]
	sub	x11, x29, #2348
	stur	w8, [x11, #-256]                // 4-byte Folded Spill
	subs	w8, w8, #5
	cset	w8, ge
	tbnz	w8, #0, .LBB1_394
	b	.LBB1_393
.LBB1_393:                              // %inner.loop.body390
                                        //   in Loop: Header=BB1_392 Depth=3
	sub	x8, x29, #752
	ldur	x11, [x8, #-256]                // 8-byte Folded Reload
	sub	x8, x29, #2348
	ldur	w8, [x8, #-256]                 // 4-byte Folded Reload
	add	w8, w8, #1
	str	w8, [x11]
	b	.LBB1_395
.LBB1_394:                              // %inner.loop.end391
                                        //   in Loop: Header=BB1_389 Depth=2
	b	.LBB1_389
.LBB1_395:                              // %inner.loop.cond392
                                        //   Parent Loop BB1_3 Depth=1
                                        //     Parent Loop BB1_389 Depth=2
                                        //       Parent Loop BB1_392 Depth=3
                                        // =>      This Loop Header: Depth=4
                                        //           Child Loop BB1_398 Depth 5
                                        //             Child Loop BB1_401 Depth 6
	sub	x8, x29, #744
	ldur	x8, [x8, #-256]                 // 8-byte Folded Reload
	ldr	w8, [x8]
	sub	x11, x29, #2352
	stur	w8, [x11, #-256]                // 4-byte Folded Spill
	subs	w8, w8, #5
	cset	w8, ge
	tbnz	w8, #0, .LBB1_397
	b	.LBB1_396
.LBB1_396:                              // %inner.loop.body393
                                        //   in Loop: Header=BB1_395 Depth=4
	sub	x8, x29, #744
	ldur	x11, [x8, #-256]                // 8-byte Folded Reload
	sub	x8, x29, #2352
	ldur	w8, [x8, #-256]                 // 4-byte Folded Reload
	add	w8, w8, #1
	str	w8, [x11]
	b	.LBB1_398
.LBB1_397:                              // %inner.loop.end394
                                        //   in Loop: Header=BB1_392 Depth=3
	b	.LBB1_392
.LBB1_398:                              // %inner.loop.cond395
                                        //   Parent Loop BB1_3 Depth=1
                                        //     Parent Loop BB1_389 Depth=2
                                        //       Parent Loop BB1_392 Depth=3
                                        //         Parent Loop BB1_395 Depth=4
                                        // =>        This Loop Header: Depth=5
                                        //             Child Loop BB1_401 Depth 6
	sub	x8, x29, #736
	ldur	x8, [x8, #-256]                 // 8-byte Folded Reload
	ldr	w8, [x8]
	sub	x11, x29, #2356
	stur	w8, [x11, #-256]                // 4-byte Folded Spill
	subs	w8, w8, #5
	cset	w8, ge
	tbnz	w8, #0, .LBB1_400
	b	.LBB1_399
.LBB1_399:                              // %inner.loop.body396
                                        //   in Loop: Header=BB1_398 Depth=5
	sub	x8, x29, #736
	ldur	x11, [x8, #-256]                // 8-byte Folded Reload
	sub	x8, x29, #2356
	ldur	w8, [x8, #-256]                 // 4-byte Folded Reload
	add	w8, w8, #1
	str	w8, [x11]
	b	.LBB1_401
.LBB1_400:                              // %inner.loop.end397
                                        //   in Loop: Header=BB1_395 Depth=4
	b	.LBB1_395
.LBB1_401:                              // %inner.loop.cond398
                                        //   Parent Loop BB1_3 Depth=1
                                        //     Parent Loop BB1_389 Depth=2
                                        //       Parent Loop BB1_392 Depth=3
                                        //         Parent Loop BB1_395 Depth=4
                                        //           Parent Loop BB1_398 Depth=5
                                        // =>          This Inner Loop Header: Depth=6
	sub	x8, x29, #728
	ldur	x8, [x8, #-256]                 // 8-byte Folded Reload
	ldr	w8, [x8]
	sub	x11, x29, #2360
	stur	w8, [x11, #-256]                // 4-byte Folded Spill
	subs	w8, w8, #5
	cset	w8, ge
	tbnz	w8, #0, .LBB1_403
	b	.LBB1_402
.LBB1_402:                              // %inner.loop.body399
                                        //   in Loop: Header=BB1_401 Depth=6
	sub	x8, x29, #720
	ldur	x8, [x8, #-256]                 // 8-byte Folded Reload
	sub	x11, x29, #728
	ldur	x12, [x11, #-256]               // 8-byte Folded Reload
	sub	x11, x29, #2360
	ldur	w11, [x11, #-256]               // 4-byte Folded Reload
	add	w11, w11, #1
	str	w11, [x12]
	ldr	w8, [x8]
	subs	w8, w8, #0
	cset	w8, gt
	tbnz	w8, #0, .LBB1_401
	b	.LBB1_388
.LBB1_403:                              // %inner.loop.end400
                                        //   in Loop: Header=BB1_398 Depth=5
	b	.LBB1_398
.LBB1_404:                              // %excute.cond408
                                        //   in Loop: Header=BB1_3 Depth=1
	sub	x8, x29, #792
	ldur	x11, [x8, #-256]                // 8-byte Folded Reload
	ldr	w8, [x11]
	add	w8, w8, #1
	str	w8, [x11]
	b	.LBB1_56
.LBB1_405:                              // %outer.loop.cond409
                                        //   Parent Loop BB1_3 Depth=1
                                        // =>  This Loop Header: Depth=2
                                        //       Child Loop BB1_408 Depth 3
                                        //         Child Loop BB1_411 Depth 4
                                        //           Child Loop BB1_414 Depth 5
                                        //             Child Loop BB1_417 Depth 6
	sub	x8, x29, #832
	ldur	x8, [x8, #-256]                 // 8-byte Folded Reload
	ldr	w8, [x8]
	sub	x11, x29, #2364
	stur	w8, [x11, #-256]                // 4-byte Folded Spill
	subs	w8, w8, #10
	cset	w8, ge
	tbnz	w8, #0, .LBB1_407
	b	.LBB1_406
.LBB1_406:                              // %outer.loop.body410
                                        //   in Loop: Header=BB1_405 Depth=2
	sub	x8, x29, #832
	ldur	x11, [x8, #-256]                // 8-byte Folded Reload
	sub	x8, x29, #2364
	ldur	w8, [x8, #-256]                 // 4-byte Folded Reload
	add	w8, w8, #1
	str	w8, [x11]
	b	.LBB1_408
.LBB1_407:                              // %outer.loop.end411
                                        //   in Loop: Header=BB1_3 Depth=1
	b	.LBB1_56
.LBB1_408:                              // %inner.loop.cond412
                                        //   Parent Loop BB1_3 Depth=1
                                        //     Parent Loop BB1_405 Depth=2
                                        // =>    This Loop Header: Depth=3
                                        //         Child Loop BB1_411 Depth 4
                                        //           Child Loop BB1_414 Depth 5
                                        //             Child Loop BB1_417 Depth 6
	sub	x8, x29, #824
	ldur	x8, [x8, #-256]                 // 8-byte Folded Reload
	ldr	w8, [x8]
	sub	x11, x29, #2368
	stur	w8, [x11, #-256]                // 4-byte Folded Spill
	subs	w8, w8, #5
	cset	w8, ge
	tbnz	w8, #0, .LBB1_410
	b	.LBB1_409
.LBB1_409:                              // %inner.loop.body413
                                        //   in Loop: Header=BB1_408 Depth=3
	sub	x8, x29, #824
	ldur	x11, [x8, #-256]                // 8-byte Folded Reload
	sub	x8, x29, #2368
	ldur	w8, [x8, #-256]                 // 4-byte Folded Reload
	add	w8, w8, #1
	str	w8, [x11]
	b	.LBB1_411
.LBB1_410:                              // %inner.loop.end414
                                        //   in Loop: Header=BB1_405 Depth=2
	b	.LBB1_405
.LBB1_411:                              // %inner.loop.cond415
                                        //   Parent Loop BB1_3 Depth=1
                                        //     Parent Loop BB1_405 Depth=2
                                        //       Parent Loop BB1_408 Depth=3
                                        // =>      This Loop Header: Depth=4
                                        //           Child Loop BB1_414 Depth 5
                                        //             Child Loop BB1_417 Depth 6
	sub	x8, x29, #816
	ldur	x8, [x8, #-256]                 // 8-byte Folded Reload
	ldr	w8, [x8]
	sub	x11, x29, #2372
	stur	w8, [x11, #-256]                // 4-byte Folded Spill
	subs	w8, w8, #5
	cset	w8, ge
	tbnz	w8, #0, .LBB1_413
	b	.LBB1_412
.LBB1_412:                              // %inner.loop.body416
                                        //   in Loop: Header=BB1_411 Depth=4
	sub	x8, x29, #816
	ldur	x11, [x8, #-256]                // 8-byte Folded Reload
	sub	x8, x29, #2372
	ldur	w8, [x8, #-256]                 // 4-byte Folded Reload
	add	w8, w8, #1
	str	w8, [x11]
	b	.LBB1_414
.LBB1_413:                              // %inner.loop.end417
                                        //   in Loop: Header=BB1_408 Depth=3
	b	.LBB1_408
.LBB1_414:                              // %inner.loop.cond418
                                        //   Parent Loop BB1_3 Depth=1
                                        //     Parent Loop BB1_405 Depth=2
                                        //       Parent Loop BB1_408 Depth=3
                                        //         Parent Loop BB1_411 Depth=4
                                        // =>        This Loop Header: Depth=5
                                        //             Child Loop BB1_417 Depth 6
	sub	x8, x29, #808
	ldur	x8, [x8, #-256]                 // 8-byte Folded Reload
	ldr	w8, [x8]
	sub	x11, x29, #2376
	stur	w8, [x11, #-256]                // 4-byte Folded Spill
	subs	w8, w8, #5
	cset	w8, ge
	tbnz	w8, #0, .LBB1_416
	b	.LBB1_415
.LBB1_415:                              // %inner.loop.body419
                                        //   in Loop: Header=BB1_414 Depth=5
	sub	x8, x29, #808
	ldur	x11, [x8, #-256]                // 8-byte Folded Reload
	sub	x8, x29, #2376
	ldur	w8, [x8, #-256]                 // 4-byte Folded Reload
	add	w8, w8, #1
	str	w8, [x11]
	b	.LBB1_417
.LBB1_416:                              // %inner.loop.end420
                                        //   in Loop: Header=BB1_411 Depth=4
	b	.LBB1_411
.LBB1_417:                              // %inner.loop.cond421
                                        //   Parent Loop BB1_3 Depth=1
                                        //     Parent Loop BB1_405 Depth=2
                                        //       Parent Loop BB1_408 Depth=3
                                        //         Parent Loop BB1_411 Depth=4
                                        //           Parent Loop BB1_414 Depth=5
                                        // =>          This Inner Loop Header: Depth=6
	sub	x8, x29, #800
	ldur	x8, [x8, #-256]                 // 8-byte Folded Reload
	ldr	w8, [x8]
	sub	x11, x29, #2380
	stur	w8, [x11, #-256]                // 4-byte Folded Spill
	subs	w8, w8, #5
	cset	w8, ge
	tbnz	w8, #0, .LBB1_419
	b	.LBB1_418
.LBB1_418:                              // %inner.loop.body422
                                        //   in Loop: Header=BB1_417 Depth=6
	sub	x8, x29, #792
	ldur	x8, [x8, #-256]                 // 8-byte Folded Reload
	sub	x11, x29, #800
	ldur	x12, [x11, #-256]               // 8-byte Folded Reload
	sub	x11, x29, #2380
	ldur	w11, [x11, #-256]               // 4-byte Folded Reload
	add	w11, w11, #1
	str	w11, [x12]
	ldr	w8, [x8]
	subs	w8, w8, #0
	cset	w8, gt
	tbnz	w8, #0, .LBB1_417
	b	.LBB1_404
.LBB1_419:                              // %inner.loop.end423
                                        //   in Loop: Header=BB1_414 Depth=5
	b	.LBB1_414
.LBB1_420:                              // %excute.cond431
                                        //   in Loop: Header=BB1_3 Depth=1
	sub	x8, x29, #864
	ldur	x11, [x8, #-256]                // 8-byte Folded Reload
	ldr	w8, [x11]
	add	w8, w8, #1
	str	w8, [x11]
	b	.LBB1_59
.LBB1_421:                              // %outer.loop.cond432
                                        //   Parent Loop BB1_3 Depth=1
                                        // =>  This Loop Header: Depth=2
                                        //       Child Loop BB1_424 Depth 3
                                        //         Child Loop BB1_427 Depth 4
                                        //           Child Loop BB1_430 Depth 5
                                        //             Child Loop BB1_433 Depth 6
	sub	x8, x29, #904
	ldur	x8, [x8, #-256]                 // 8-byte Folded Reload
	ldr	w8, [x8]
	sub	x11, x29, #2384
	stur	w8, [x11, #-256]                // 4-byte Folded Spill
	subs	w8, w8, #10
	cset	w8, ge
	tbnz	w8, #0, .LBB1_423
	b	.LBB1_422
.LBB1_422:                              // %outer.loop.body433
                                        //   in Loop: Header=BB1_421 Depth=2
	sub	x8, x29, #904
	ldur	x11, [x8, #-256]                // 8-byte Folded Reload
	sub	x8, x29, #2384
	ldur	w8, [x8, #-256]                 // 4-byte Folded Reload
	add	w8, w8, #1
	str	w8, [x11]
	b	.LBB1_424
.LBB1_423:                              // %outer.loop.end434
                                        //   in Loop: Header=BB1_3 Depth=1
	b	.LBB1_59
.LBB1_424:                              // %inner.loop.cond435
                                        //   Parent Loop BB1_3 Depth=1
                                        //     Parent Loop BB1_421 Depth=2
                                        // =>    This Loop Header: Depth=3
                                        //         Child Loop BB1_427 Depth 4
                                        //           Child Loop BB1_430 Depth 5
                                        //             Child Loop BB1_433 Depth 6
	sub	x8, x29, #896
	ldur	x8, [x8, #-256]                 // 8-byte Folded Reload
	ldr	w8, [x8]
	sub	x11, x29, #2388
	stur	w8, [x11, #-256]                // 4-byte Folded Spill
	subs	w8, w8, #5
	cset	w8, ge
	tbnz	w8, #0, .LBB1_426
	b	.LBB1_425
.LBB1_425:                              // %inner.loop.body436
                                        //   in Loop: Header=BB1_424 Depth=3
	sub	x8, x29, #896
	ldur	x11, [x8, #-256]                // 8-byte Folded Reload
	sub	x8, x29, #2388
	ldur	w8, [x8, #-256]                 // 4-byte Folded Reload
	add	w8, w8, #1
	str	w8, [x11]
	b	.LBB1_427
.LBB1_426:                              // %inner.loop.end437
                                        //   in Loop: Header=BB1_421 Depth=2
	b	.LBB1_421
.LBB1_427:                              // %inner.loop.cond438
                                        //   Parent Loop BB1_3 Depth=1
                                        //     Parent Loop BB1_421 Depth=2
                                        //       Parent Loop BB1_424 Depth=3
                                        // =>      This Loop Header: Depth=4
                                        //           Child Loop BB1_430 Depth 5
                                        //             Child Loop BB1_433 Depth 6
	sub	x8, x29, #888
	ldur	x8, [x8, #-256]                 // 8-byte Folded Reload
	ldr	w8, [x8]
	sub	x11, x29, #2392
	stur	w8, [x11, #-256]                // 4-byte Folded Spill
	subs	w8, w8, #5
	cset	w8, ge
	tbnz	w8, #0, .LBB1_429
	b	.LBB1_428
.LBB1_428:                              // %inner.loop.body439
                                        //   in Loop: Header=BB1_427 Depth=4
	sub	x8, x29, #888
	ldur	x11, [x8, #-256]                // 8-byte Folded Reload
	sub	x8, x29, #2392
	ldur	w8, [x8, #-256]                 // 4-byte Folded Reload
	add	w8, w8, #1
	str	w8, [x11]
	b	.LBB1_430
.LBB1_429:                              // %inner.loop.end440
                                        //   in Loop: Header=BB1_424 Depth=3
	b	.LBB1_424
.LBB1_430:                              // %inner.loop.cond441
                                        //   Parent Loop BB1_3 Depth=1
                                        //     Parent Loop BB1_421 Depth=2
                                        //       Parent Loop BB1_424 Depth=3
                                        //         Parent Loop BB1_427 Depth=4
                                        // =>        This Loop Header: Depth=5
                                        //             Child Loop BB1_433 Depth 6
	sub	x8, x29, #880
	ldur	x8, [x8, #-256]                 // 8-byte Folded Reload
	ldr	w8, [x8]
	sub	x11, x29, #2396
	stur	w8, [x11, #-256]                // 4-byte Folded Spill
	subs	w8, w8, #5
	cset	w8, ge
	tbnz	w8, #0, .LBB1_432
	b	.LBB1_431
.LBB1_431:                              // %inner.loop.body442
                                        //   in Loop: Header=BB1_430 Depth=5
	sub	x8, x29, #880
	ldur	x11, [x8, #-256]                // 8-byte Folded Reload
	sub	x8, x29, #2396
	ldur	w8, [x8, #-256]                 // 4-byte Folded Reload
	add	w8, w8, #1
	str	w8, [x11]
	b	.LBB1_433
.LBB1_432:                              // %inner.loop.end443
                                        //   in Loop: Header=BB1_427 Depth=4
	b	.LBB1_427
.LBB1_433:                              // %inner.loop.cond444
                                        //   Parent Loop BB1_3 Depth=1
                                        //     Parent Loop BB1_421 Depth=2
                                        //       Parent Loop BB1_424 Depth=3
                                        //         Parent Loop BB1_427 Depth=4
                                        //           Parent Loop BB1_430 Depth=5
                                        // =>          This Inner Loop Header: Depth=6
	sub	x8, x29, #872
	ldur	x8, [x8, #-256]                 // 8-byte Folded Reload
	ldr	w8, [x8]
	sub	x11, x29, #2400
	stur	w8, [x11, #-256]                // 4-byte Folded Spill
	subs	w8, w8, #5
	cset	w8, ge
	tbnz	w8, #0, .LBB1_435
	b	.LBB1_434
.LBB1_434:                              // %inner.loop.body445
                                        //   in Loop: Header=BB1_433 Depth=6
	sub	x8, x29, #864
	ldur	x8, [x8, #-256]                 // 8-byte Folded Reload
	sub	x11, x29, #872
	ldur	x12, [x11, #-256]               // 8-byte Folded Reload
	sub	x11, x29, #2400
	ldur	w11, [x11, #-256]               // 4-byte Folded Reload
	add	w11, w11, #1
	str	w11, [x12]
	ldr	w8, [x8]
	subs	w8, w8, #0
	cset	w8, gt
	tbnz	w8, #0, .LBB1_433
	b	.LBB1_420
.LBB1_435:                              // %inner.loop.end446
                                        //   in Loop: Header=BB1_430 Depth=5
	b	.LBB1_430
.LBB1_436:                              // %excute.cond454
                                        //   in Loop: Header=BB1_3 Depth=1
	sub	x8, x29, #936
	ldur	x11, [x8, #-256]                // 8-byte Folded Reload
	ldr	w8, [x11]
	add	w8, w8, #1
	str	w8, [x11]
	b	.LBB1_62
.LBB1_437:                              // %outer.loop.cond455
                                        //   Parent Loop BB1_3 Depth=1
                                        // =>  This Loop Header: Depth=2
                                        //       Child Loop BB1_440 Depth 3
                                        //         Child Loop BB1_443 Depth 4
                                        //           Child Loop BB1_446 Depth 5
                                        //             Child Loop BB1_449 Depth 6
	sub	x8, x29, #976
	ldur	x8, [x8, #-256]                 // 8-byte Folded Reload
	ldr	w8, [x8]
	sub	x11, x29, #2404
	stur	w8, [x11, #-256]                // 4-byte Folded Spill
	subs	w8, w8, #10
	cset	w8, ge
	tbnz	w8, #0, .LBB1_439
	b	.LBB1_438
.LBB1_438:                              // %outer.loop.body456
                                        //   in Loop: Header=BB1_437 Depth=2
	sub	x8, x29, #976
	ldur	x11, [x8, #-256]                // 8-byte Folded Reload
	sub	x8, x29, #2404
	ldur	w8, [x8, #-256]                 // 4-byte Folded Reload
	add	w8, w8, #1
	str	w8, [x11]
	b	.LBB1_440
.LBB1_439:                              // %outer.loop.end457
                                        //   in Loop: Header=BB1_3 Depth=1
	b	.LBB1_62
.LBB1_440:                              // %inner.loop.cond458
                                        //   Parent Loop BB1_3 Depth=1
                                        //     Parent Loop BB1_437 Depth=2
                                        // =>    This Loop Header: Depth=3
                                        //         Child Loop BB1_443 Depth 4
                                        //           Child Loop BB1_446 Depth 5
                                        //             Child Loop BB1_449 Depth 6
	sub	x8, x29, #968
	ldur	x8, [x8, #-256]                 // 8-byte Folded Reload
	ldr	w8, [x8]
	sub	x11, x29, #2408
	stur	w8, [x11, #-256]                // 4-byte Folded Spill
	subs	w8, w8, #5
	cset	w8, ge
	tbnz	w8, #0, .LBB1_442
	b	.LBB1_441
.LBB1_441:                              // %inner.loop.body459
                                        //   in Loop: Header=BB1_440 Depth=3
	sub	x8, x29, #968
	ldur	x11, [x8, #-256]                // 8-byte Folded Reload
	sub	x8, x29, #2408
	ldur	w8, [x8, #-256]                 // 4-byte Folded Reload
	add	w8, w8, #1
	str	w8, [x11]
	b	.LBB1_443
.LBB1_442:                              // %inner.loop.end460
                                        //   in Loop: Header=BB1_437 Depth=2
	b	.LBB1_437
.LBB1_443:                              // %inner.loop.cond461
                                        //   Parent Loop BB1_3 Depth=1
                                        //     Parent Loop BB1_437 Depth=2
                                        //       Parent Loop BB1_440 Depth=3
                                        // =>      This Loop Header: Depth=4
                                        //           Child Loop BB1_446 Depth 5
                                        //             Child Loop BB1_449 Depth 6
	sub	x8, x29, #960
	ldur	x8, [x8, #-256]                 // 8-byte Folded Reload
	ldr	w8, [x8]
	sub	x11, x29, #2412
	stur	w8, [x11, #-256]                // 4-byte Folded Spill
	subs	w8, w8, #5
	cset	w8, ge
	tbnz	w8, #0, .LBB1_445
	b	.LBB1_444
.LBB1_444:                              // %inner.loop.body462
                                        //   in Loop: Header=BB1_443 Depth=4
	sub	x8, x29, #960
	ldur	x11, [x8, #-256]                // 8-byte Folded Reload
	sub	x8, x29, #2412
	ldur	w8, [x8, #-256]                 // 4-byte Folded Reload
	add	w8, w8, #1
	str	w8, [x11]
	b	.LBB1_446
.LBB1_445:                              // %inner.loop.end463
                                        //   in Loop: Header=BB1_440 Depth=3
	b	.LBB1_440
.LBB1_446:                              // %inner.loop.cond464
                                        //   Parent Loop BB1_3 Depth=1
                                        //     Parent Loop BB1_437 Depth=2
                                        //       Parent Loop BB1_440 Depth=3
                                        //         Parent Loop BB1_443 Depth=4
                                        // =>        This Loop Header: Depth=5
                                        //             Child Loop BB1_449 Depth 6
	sub	x8, x29, #952
	ldur	x8, [x8, #-256]                 // 8-byte Folded Reload
	ldr	w8, [x8]
	sub	x11, x29, #2416
	stur	w8, [x11, #-256]                // 4-byte Folded Spill
	subs	w8, w8, #5
	cset	w8, ge
	tbnz	w8, #0, .LBB1_448
	b	.LBB1_447
.LBB1_447:                              // %inner.loop.body465
                                        //   in Loop: Header=BB1_446 Depth=5
	sub	x8, x29, #952
	ldur	x11, [x8, #-256]                // 8-byte Folded Reload
	sub	x8, x29, #2416
	ldur	w8, [x8, #-256]                 // 4-byte Folded Reload
	add	w8, w8, #1
	str	w8, [x11]
	b	.LBB1_449
.LBB1_448:                              // %inner.loop.end466
                                        //   in Loop: Header=BB1_443 Depth=4
	b	.LBB1_443
.LBB1_449:                              // %inner.loop.cond467
                                        //   Parent Loop BB1_3 Depth=1
                                        //     Parent Loop BB1_437 Depth=2
                                        //       Parent Loop BB1_440 Depth=3
                                        //         Parent Loop BB1_443 Depth=4
                                        //           Parent Loop BB1_446 Depth=5
                                        // =>          This Inner Loop Header: Depth=6
	sub	x8, x29, #944
	ldur	x8, [x8, #-256]                 // 8-byte Folded Reload
	ldr	w8, [x8]
	sub	x11, x29, #2420
	stur	w8, [x11, #-256]                // 4-byte Folded Spill
	subs	w8, w8, #5
	cset	w8, ge
	tbnz	w8, #0, .LBB1_451
	b	.LBB1_450
.LBB1_450:                              // %inner.loop.body468
                                        //   in Loop: Header=BB1_449 Depth=6
	sub	x8, x29, #936
	ldur	x8, [x8, #-256]                 // 8-byte Folded Reload
	sub	x11, x29, #944
	ldur	x12, [x11, #-256]               // 8-byte Folded Reload
	sub	x11, x29, #2420
	ldur	w11, [x11, #-256]               // 4-byte Folded Reload
	add	w11, w11, #1
	str	w11, [x12]
	ldr	w8, [x8]
	subs	w8, w8, #0
	cset	w8, gt
	tbnz	w8, #0, .LBB1_449
	b	.LBB1_436
.LBB1_451:                              // %inner.loop.end469
                                        //   in Loop: Header=BB1_446 Depth=5
	b	.LBB1_446
.LBB1_452:                              // %excute.cond477
                                        //   in Loop: Header=BB1_3 Depth=1
	sub	x8, x29, #1016
	ldur	x11, [x8, #-256]                // 8-byte Folded Reload
	ldr	w8, [x11]
	add	w8, w8, #1
	str	w8, [x11]
	b	.LBB1_65
.LBB1_453:                              // %outer.loop.cond478
                                        //   Parent Loop BB1_3 Depth=1
                                        // =>  This Loop Header: Depth=2
                                        //       Child Loop BB1_456 Depth 3
                                        //         Child Loop BB1_459 Depth 4
                                        //           Child Loop BB1_462 Depth 5
                                        //             Child Loop BB1_465 Depth 6
	sub	x8, x29, #1056
	ldur	x8, [x8, #-256]                 // 8-byte Folded Reload
	ldr	w8, [x8]
	sub	x11, x29, #2424
